
CALC_project.elf:     file format elf32-avr

Sections:
Idx Name          Size      VMA       LMA       File off  Algn
  0 .text         000041b4  00000000  00000000  00000094  2**1
                  CONTENTS, ALLOC, LOAD, READONLY, CODE
  1 .data         0000011e  00800060  000041b4  00004248  2**0
                  CONTENTS, ALLOC, LOAD, DATA
  2 .bss          00000004  0080017e  0080017e  00004366  2**0
                  ALLOC
  3 .debug_aranges 00000200  00000000  00000000  00004366  2**0
                  CONTENTS, READONLY, DEBUGGING
  4 .debug_pubnames 00000257  00000000  00000000  00004566  2**0
                  CONTENTS, READONLY, DEBUGGING
  5 .debug_info   00003291  00000000  00000000  000047bd  2**0
                  CONTENTS, READONLY, DEBUGGING
  6 .debug_abbrev 000016c9  00000000  00000000  00007a4e  2**0
                  CONTENTS, READONLY, DEBUGGING
  7 .debug_line   000016c9  00000000  00000000  00009117  2**0
                  CONTENTS, READONLY, DEBUGGING
  8 .debug_frame  00000220  00000000  00000000  0000a7e0  2**2
                  CONTENTS, READONLY, DEBUGGING
  9 .debug_str    000003af  00000000  00000000  0000aa00  2**0
                  CONTENTS, READONLY, DEBUGGING
 10 .debug_loc    000023e4  00000000  00000000  0000adaf  2**0
                  CONTENTS, READONLY, DEBUGGING
 11 .debug_ranges 00000080  00000000  00000000  0000d193  2**0
                  CONTENTS, READONLY, DEBUGGING

Disassembly of section .text:

00000000 <__vectors>:
       0:	0c 94 2a 00 	jmp	0x54	; 0x54 <__ctors_end>
       4:	0c 94 47 00 	jmp	0x8e	; 0x8e <__bad_interrupt>
       8:	0c 94 47 00 	jmp	0x8e	; 0x8e <__bad_interrupt>
       c:	0c 94 47 00 	jmp	0x8e	; 0x8e <__bad_interrupt>
      10:	0c 94 47 00 	jmp	0x8e	; 0x8e <__bad_interrupt>
      14:	0c 94 47 00 	jmp	0x8e	; 0x8e <__bad_interrupt>
      18:	0c 94 47 00 	jmp	0x8e	; 0x8e <__bad_interrupt>
      1c:	0c 94 47 00 	jmp	0x8e	; 0x8e <__bad_interrupt>
      20:	0c 94 47 00 	jmp	0x8e	; 0x8e <__bad_interrupt>
      24:	0c 94 47 00 	jmp	0x8e	; 0x8e <__bad_interrupt>
      28:	0c 94 47 00 	jmp	0x8e	; 0x8e <__bad_interrupt>
      2c:	0c 94 47 00 	jmp	0x8e	; 0x8e <__bad_interrupt>
      30:	0c 94 47 00 	jmp	0x8e	; 0x8e <__bad_interrupt>
      34:	0c 94 47 00 	jmp	0x8e	; 0x8e <__bad_interrupt>
      38:	0c 94 47 00 	jmp	0x8e	; 0x8e <__bad_interrupt>
      3c:	0c 94 47 00 	jmp	0x8e	; 0x8e <__bad_interrupt>
      40:	0c 94 47 00 	jmp	0x8e	; 0x8e <__bad_interrupt>
      44:	0c 94 47 00 	jmp	0x8e	; 0x8e <__bad_interrupt>
      48:	0c 94 47 00 	jmp	0x8e	; 0x8e <__bad_interrupt>
      4c:	0c 94 47 00 	jmp	0x8e	; 0x8e <__bad_interrupt>
      50:	0c 94 47 00 	jmp	0x8e	; 0x8e <__bad_interrupt>

00000054 <__ctors_end>:
      54:	11 24       	eor	r1, r1
      56:	1f be       	out	0x3f, r1	; 63
      58:	cf e5       	ldi	r28, 0x5F	; 95
      5a:	d8 e0       	ldi	r29, 0x08	; 8
      5c:	de bf       	out	0x3e, r29	; 62
      5e:	cd bf       	out	0x3d, r28	; 61

00000060 <__do_copy_data>:
      60:	11 e0       	ldi	r17, 0x01	; 1
      62:	a0 e6       	ldi	r26, 0x60	; 96
      64:	b0 e0       	ldi	r27, 0x00	; 0
      66:	e4 eb       	ldi	r30, 0xB4	; 180
      68:	f1 e4       	ldi	r31, 0x41	; 65
      6a:	02 c0       	rjmp	.+4      	; 0x70 <.do_copy_data_start>

0000006c <.do_copy_data_loop>:
      6c:	05 90       	lpm	r0, Z+
      6e:	0d 92       	st	X+, r0

00000070 <.do_copy_data_start>:
      70:	ae 37       	cpi	r26, 0x7E	; 126
      72:	b1 07       	cpc	r27, r17
      74:	d9 f7       	brne	.-10     	; 0x6c <.do_copy_data_loop>

00000076 <__do_clear_bss>:
      76:	11 e0       	ldi	r17, 0x01	; 1
      78:	ae e7       	ldi	r26, 0x7E	; 126
      7a:	b1 e0       	ldi	r27, 0x01	; 1
      7c:	01 c0       	rjmp	.+2      	; 0x80 <.do_clear_bss_start>

0000007e <.do_clear_bss_loop>:
      7e:	1d 92       	st	X+, r1

00000080 <.do_clear_bss_start>:
      80:	a2 38       	cpi	r26, 0x82	; 130
      82:	b1 07       	cpc	r27, r17
      84:	e1 f7       	brne	.-8      	; 0x7e <.do_clear_bss_loop>
      86:	0e 94 69 1e 	call	0x3cd2	; 0x3cd2 <main>
      8a:	0c 94 d8 20 	jmp	0x41b0	; 0x41b0 <_exit>

0000008e <__bad_interrupt>:
      8e:	0c 94 00 00 	jmp	0	; 0x0 <__vectors>

00000092 <__ashldi3>:
      92:	ef 92       	push	r14
      94:	ff 92       	push	r15
      96:	0f 93       	push	r16
      98:	df 93       	push	r29
      9a:	cf 93       	push	r28
      9c:	cd b7       	in	r28, 0x3d	; 61
      9e:	de b7       	in	r29, 0x3e	; 62
      a0:	60 97       	sbiw	r28, 0x10	; 16
      a2:	0f b6       	in	r0, 0x3f	; 63
      a4:	f8 94       	cli
      a6:	de bf       	out	0x3e, r29	; 62
      a8:	0f be       	out	0x3f, r0	; 63
      aa:	cd bf       	out	0x3d, r28	; 61
      ac:	a8 2f       	mov	r26, r24
      ae:	00 23       	and	r16, r16
      b0:	09 f4       	brne	.+2      	; 0xb4 <__ashldi3+0x22>
      b2:	61 c0       	rjmp	.+194    	; 0x176 <__ashldi3+0xe4>
      b4:	7e 01       	movw	r14, r28
      b6:	08 94       	sec
      b8:	e1 1c       	adc	r14, r1
      ba:	f1 1c       	adc	r15, r1
      bc:	88 e0       	ldi	r24, 0x08	; 8
      be:	f7 01       	movw	r30, r14
      c0:	11 92       	st	Z+, r1
      c2:	8a 95       	dec	r24
      c4:	e9 f7       	brne	.-6      	; 0xc0 <__ashldi3+0x2e>
      c6:	29 83       	std	Y+1, r18	; 0x01
      c8:	3a 83       	std	Y+2, r19	; 0x02
      ca:	4b 83       	std	Y+3, r20	; 0x03
      cc:	5c 83       	std	Y+4, r21	; 0x04
      ce:	6d 83       	std	Y+5, r22	; 0x05
      d0:	7e 83       	std	Y+6, r23	; 0x06
      d2:	af 83       	std	Y+7, r26	; 0x07
      d4:	98 87       	std	Y+8, r25	; 0x08
      d6:	80 e2       	ldi	r24, 0x20	; 32
      d8:	80 1b       	sub	r24, r16
      da:	e8 2f       	mov	r30, r24
      dc:	ff 27       	eor	r31, r31
      de:	e7 fd       	sbrc	r30, 7
      e0:	f0 95       	com	r31
      e2:	49 81       	ldd	r20, Y+1	; 0x01
      e4:	5a 81       	ldd	r21, Y+2	; 0x02
      e6:	6b 81       	ldd	r22, Y+3	; 0x03
      e8:	7c 81       	ldd	r23, Y+4	; 0x04
      ea:	18 16       	cp	r1, r24
      ec:	84 f0       	brlt	.+32     	; 0x10e <__ashldi3+0x7c>
      ee:	19 86       	std	Y+9, r1	; 0x09
      f0:	1a 86       	std	Y+10, r1	; 0x0a
      f2:	1b 86       	std	Y+11, r1	; 0x0b
      f4:	1c 86       	std	Y+12, r1	; 0x0c
      f6:	88 27       	eor	r24, r24
      f8:	99 27       	eor	r25, r25
      fa:	8e 1b       	sub	r24, r30
      fc:	9f 0b       	sbc	r25, r31
      fe:	04 c0       	rjmp	.+8      	; 0x108 <__ashldi3+0x76>
     100:	44 0f       	add	r20, r20
     102:	55 1f       	adc	r21, r21
     104:	66 1f       	adc	r22, r22
     106:	77 1f       	adc	r23, r23
     108:	8a 95       	dec	r24
     10a:	d2 f7       	brpl	.-12     	; 0x100 <__ashldi3+0x6e>
     10c:	28 c0       	rjmp	.+80     	; 0x15e <__ashldi3+0xcc>
     10e:	20 2f       	mov	r18, r16
     110:	33 27       	eor	r19, r19
     112:	27 fd       	sbrc	r18, 7
     114:	30 95       	com	r19
     116:	db 01       	movw	r26, r22
     118:	ca 01       	movw	r24, r20
     11a:	02 2e       	mov	r0, r18
     11c:	04 c0       	rjmp	.+8      	; 0x126 <__ashldi3+0x94>
     11e:	88 0f       	add	r24, r24
     120:	99 1f       	adc	r25, r25
     122:	aa 1f       	adc	r26, r26
     124:	bb 1f       	adc	r27, r27
     126:	0a 94       	dec	r0
     128:	d2 f7       	brpl	.-12     	; 0x11e <__ashldi3+0x8c>
     12a:	89 87       	std	Y+9, r24	; 0x09
     12c:	9a 87       	std	Y+10, r25	; 0x0a
     12e:	ab 87       	std	Y+11, r26	; 0x0b
     130:	bc 87       	std	Y+12, r27	; 0x0c
     132:	04 c0       	rjmp	.+8      	; 0x13c <__ashldi3+0xaa>
     134:	76 95       	lsr	r23
     136:	67 95       	ror	r22
     138:	57 95       	ror	r21
     13a:	47 95       	ror	r20
     13c:	ea 95       	dec	r30
     13e:	d2 f7       	brpl	.-12     	; 0x134 <__ashldi3+0xa2>
     140:	8d 81       	ldd	r24, Y+5	; 0x05
     142:	9e 81       	ldd	r25, Y+6	; 0x06
     144:	af 81       	ldd	r26, Y+7	; 0x07
     146:	b8 85       	ldd	r27, Y+8	; 0x08
     148:	04 c0       	rjmp	.+8      	; 0x152 <__ashldi3+0xc0>
     14a:	88 0f       	add	r24, r24
     14c:	99 1f       	adc	r25, r25
     14e:	aa 1f       	adc	r26, r26
     150:	bb 1f       	adc	r27, r27
     152:	2a 95       	dec	r18
     154:	d2 f7       	brpl	.-12     	; 0x14a <__ashldi3+0xb8>
     156:	48 2b       	or	r20, r24
     158:	59 2b       	or	r21, r25
     15a:	6a 2b       	or	r22, r26
     15c:	7b 2b       	or	r23, r27
     15e:	4d 87       	std	Y+13, r20	; 0x0d
     160:	5e 87       	std	Y+14, r21	; 0x0e
     162:	6f 87       	std	Y+15, r22	; 0x0f
     164:	78 8b       	std	Y+16, r23	; 0x10
     166:	29 85       	ldd	r18, Y+9	; 0x09
     168:	3a 85       	ldd	r19, Y+10	; 0x0a
     16a:	4b 85       	ldd	r20, Y+11	; 0x0b
     16c:	5c 85       	ldd	r21, Y+12	; 0x0c
     16e:	6d 85       	ldd	r22, Y+13	; 0x0d
     170:	7e 85       	ldd	r23, Y+14	; 0x0e
     172:	af 85       	ldd	r26, Y+15	; 0x0f
     174:	98 89       	ldd	r25, Y+16	; 0x10
     176:	8a 2f       	mov	r24, r26
     178:	60 96       	adiw	r28, 0x10	; 16
     17a:	0f b6       	in	r0, 0x3f	; 63
     17c:	f8 94       	cli
     17e:	de bf       	out	0x3e, r29	; 62
     180:	0f be       	out	0x3f, r0	; 63
     182:	cd bf       	out	0x3d, r28	; 61
     184:	cf 91       	pop	r28
     186:	df 91       	pop	r29
     188:	0f 91       	pop	r16
     18a:	ff 90       	pop	r15
     18c:	ef 90       	pop	r14
     18e:	08 95       	ret

00000190 <__fixunssfdi>:
     190:	a0 e0       	ldi	r26, 0x00	; 0
     192:	b0 e0       	ldi	r27, 0x00	; 0
     194:	ee ec       	ldi	r30, 0xCE	; 206
     196:	f0 e0       	ldi	r31, 0x00	; 0
     198:	0c 94 9c 1f 	jmp	0x3f38	; 0x3f38 <__prologue_saves__>
     19c:	7b 01       	movw	r14, r22
     19e:	8c 01       	movw	r16, r24
     1a0:	20 e0       	ldi	r18, 0x00	; 0
     1a2:	30 e0       	ldi	r19, 0x00	; 0
     1a4:	40 e8       	ldi	r20, 0x80	; 128
     1a6:	5f e3       	ldi	r21, 0x3F	; 63
     1a8:	0e 94 2b 10 	call	0x2056	; 0x2056 <__ltsf2>
     1ac:	88 23       	and	r24, r24
     1ae:	4c f4       	brge	.+18     	; 0x1c2 <__fixunssfdi+0x32>
     1b0:	aa 24       	eor	r10, r10
     1b2:	bb 24       	eor	r11, r11
     1b4:	cc 24       	eor	r12, r12
     1b6:	dd 24       	eor	r13, r13
     1b8:	ee 24       	eor	r14, r14
     1ba:	ff 24       	eor	r15, r15
     1bc:	00 e0       	ldi	r16, 0x00	; 0
     1be:	10 e0       	ldi	r17, 0x00	; 0
     1c0:	86 c0       	rjmp	.+268    	; 0x2ce <__fixunssfdi+0x13e>
     1c2:	c8 01       	movw	r24, r16
     1c4:	b7 01       	movw	r22, r14
     1c6:	20 e0       	ldi	r18, 0x00	; 0
     1c8:	30 e0       	ldi	r19, 0x00	; 0
     1ca:	40 e8       	ldi	r20, 0x80	; 128
     1cc:	5f e4       	ldi	r21, 0x4F	; 79
     1ce:	0e 94 2b 10 	call	0x2056	; 0x2056 <__ltsf2>
     1d2:	88 23       	and	r24, r24
     1d4:	54 f4       	brge	.+20     	; 0x1ea <__fixunssfdi+0x5a>
     1d6:	c8 01       	movw	r24, r16
     1d8:	b7 01       	movw	r22, r14
     1da:	0e 94 23 11 	call	0x2246	; 0x2246 <__fixunssfsi>
     1de:	5b 01       	movw	r10, r22
     1e0:	6c 01       	movw	r12, r24
     1e2:	ee 24       	eor	r14, r14
     1e4:	ff 24       	eor	r15, r15
     1e6:	87 01       	movw	r16, r14
     1e8:	72 c0       	rjmp	.+228    	; 0x2ce <__fixunssfdi+0x13e>
     1ea:	c8 01       	movw	r24, r16
     1ec:	b7 01       	movw	r22, r14
     1ee:	20 e0       	ldi	r18, 0x00	; 0
     1f0:	30 e0       	ldi	r19, 0x00	; 0
     1f2:	40 e8       	ldi	r20, 0x80	; 128
     1f4:	5f e5       	ldi	r21, 0x5F	; 95
     1f6:	0e 94 2b 10 	call	0x2056	; 0x2056 <__ltsf2>
     1fa:	87 fd       	sbrc	r24, 7
     1fc:	0f c0       	rjmp	.+30     	; 0x21c <__fixunssfdi+0x8c>
     1fe:	aa 24       	eor	r10, r10
     200:	aa 94       	dec	r10
     202:	bb 24       	eor	r11, r11
     204:	ba 94       	dec	r11
     206:	cc 24       	eor	r12, r12
     208:	ca 94       	dec	r12
     20a:	dd 24       	eor	r13, r13
     20c:	da 94       	dec	r13
     20e:	ee 24       	eor	r14, r14
     210:	ea 94       	dec	r14
     212:	ff 24       	eor	r15, r15
     214:	fa 94       	dec	r15
     216:	0f ef       	ldi	r16, 0xFF	; 255
     218:	1f ef       	ldi	r17, 0xFF	; 255
     21a:	59 c0       	rjmp	.+178    	; 0x2ce <__fixunssfdi+0x13e>
     21c:	c8 01       	movw	r24, r16
     21e:	b7 01       	movw	r22, r14
     220:	20 e0       	ldi	r18, 0x00	; 0
     222:	30 e0       	ldi	r19, 0x00	; 0
     224:	40 e8       	ldi	r20, 0x80	; 128
     226:	5f e2       	ldi	r21, 0x2F	; 47
     228:	0e 94 55 0e 	call	0x1caa	; 0x1caa <__mulsf3>
     22c:	7b 01       	movw	r14, r22
     22e:	8c 01       	movw	r16, r24
     230:	22 24       	eor	r2, r2
     232:	33 24       	eor	r3, r3
     234:	21 01       	movw	r4, r2
     236:	90 e1       	ldi	r25, 0x10	; 16
     238:	a9 2e       	mov	r10, r25
     23a:	b1 2c       	mov	r11, r1
     23c:	c1 2c       	mov	r12, r1
     23e:	d1 2c       	mov	r13, r1
     240:	c0 e0       	ldi	r28, 0x00	; 0
     242:	d0 e0       	ldi	r29, 0x00	; 0
     244:	61 e0       	ldi	r22, 0x01	; 1
     246:	70 e0       	ldi	r23, 0x00	; 0
     248:	80 e0       	ldi	r24, 0x00	; 0
     24a:	90 e0       	ldi	r25, 0x00	; 0
     24c:	0a 2c       	mov	r0, r10
     24e:	04 c0       	rjmp	.+8      	; 0x258 <__fixunssfdi+0xc8>
     250:	66 0f       	add	r22, r22
     252:	77 1f       	adc	r23, r23
     254:	88 1f       	adc	r24, r24
     256:	99 1f       	adc	r25, r25
     258:	0a 94       	dec	r0
     25a:	d2 f7       	brpl	.-12     	; 0x250 <__fixunssfdi+0xc0>
     25c:	0e 94 5b 10 	call	0x20b6	; 0x20b6 <__floatunsisf>
     260:	3b 01       	movw	r6, r22
     262:	4c 01       	movw	r8, r24
     264:	c8 01       	movw	r24, r16
     266:	b7 01       	movw	r22, r14
     268:	a4 01       	movw	r20, r8
     26a:	93 01       	movw	r18, r6
     26c:	0e 94 fb 0f 	call	0x1ff6	; 0x1ff6 <__gesf2>
     270:	88 23       	and	r24, r24
     272:	64 f0       	brlt	.+24     	; 0x28c <__fixunssfdi+0xfc>
     274:	2a 28       	or	r2, r10
     276:	3b 28       	or	r3, r11
     278:	4c 28       	or	r4, r12
     27a:	5d 28       	or	r5, r13
     27c:	c8 01       	movw	r24, r16
     27e:	b7 01       	movw	r22, r14
     280:	a4 01       	movw	r20, r8
     282:	93 01       	movw	r18, r6
     284:	0e 94 4f 0f 	call	0x1e9e	; 0x1e9e <__divsf3>
     288:	7b 01       	movw	r14, r22
     28a:	8c 01       	movw	r16, r24
     28c:	d6 94       	lsr	r13
     28e:	c7 94       	ror	r12
     290:	b7 94       	ror	r11
     292:	a7 94       	ror	r10
     294:	21 96       	adiw	r28, 0x01	; 1
     296:	c5 30       	cpi	r28, 0x05	; 5
     298:	d1 05       	cpc	r29, r1
     29a:	a1 f6       	brne	.-88     	; 0x244 <__fixunssfdi+0xb4>
     29c:	c8 01       	movw	r24, r16
     29e:	b7 01       	movw	r22, r14
     2a0:	20 e0       	ldi	r18, 0x00	; 0
     2a2:	30 e0       	ldi	r19, 0x00	; 0
     2a4:	40 e8       	ldi	r20, 0x80	; 128
     2a6:	5f e4       	ldi	r21, 0x4F	; 79
     2a8:	0e 94 55 0e 	call	0x1caa	; 0x1caa <__mulsf3>
     2ac:	0e 94 23 11 	call	0x2246	; 0x2246 <__fixunssfsi>
     2b0:	5b 01       	movw	r10, r22
     2b2:	6c 01       	movw	r12, r24
     2b4:	9b 01       	movw	r18, r22
     2b6:	a6 01       	movw	r20, r12
     2b8:	60 e0       	ldi	r22, 0x00	; 0
     2ba:	70 e0       	ldi	r23, 0x00	; 0
     2bc:	80 e0       	ldi	r24, 0x00	; 0
     2be:	90 e0       	ldi	r25, 0x00	; 0
     2c0:	02 2d       	mov	r16, r2
     2c2:	0e 94 49 00 	call	0x92	; 0x92 <__ashldi3>
     2c6:	59 01       	movw	r10, r18
     2c8:	6a 01       	movw	r12, r20
     2ca:	7b 01       	movw	r14, r22
     2cc:	8c 01       	movw	r16, r24
     2ce:	95 01       	movw	r18, r10
     2d0:	a6 01       	movw	r20, r12
     2d2:	b7 01       	movw	r22, r14
     2d4:	c8 01       	movw	r24, r16
     2d6:	cd b7       	in	r28, 0x3d	; 61
     2d8:	de b7       	in	r29, 0x3e	; 62
     2da:	e2 e1       	ldi	r30, 0x12	; 18
     2dc:	0c 94 b8 1f 	jmp	0x3f70	; 0x3f70 <__epilogue_restores__>

000002e0 <__udivdi3>:
     2e0:	ae e5       	ldi	r26, 0x5E	; 94
     2e2:	b0 e0       	ldi	r27, 0x00	; 0
     2e4:	e6 e7       	ldi	r30, 0x76	; 118
     2e6:	f1 e0       	ldi	r31, 0x01	; 1
     2e8:	0c 94 9c 1f 	jmp	0x3f38	; 0x3f38 <__prologue_saves__>
     2ec:	a8 e0       	ldi	r26, 0x08	; 8
     2ee:	4e 01       	movw	r8, r28
     2f0:	08 94       	sec
     2f2:	81 1c       	adc	r8, r1
     2f4:	91 1c       	adc	r9, r1
     2f6:	f4 01       	movw	r30, r8
     2f8:	6a 2e       	mov	r6, r26
     2fa:	11 92       	st	Z+, r1
     2fc:	6a 94       	dec	r6
     2fe:	e9 f7       	brne	.-6      	; 0x2fa <__udivdi3+0x1a>
     300:	29 83       	std	Y+1, r18	; 0x01
     302:	3a 83       	std	Y+2, r19	; 0x02
     304:	4b 83       	std	Y+3, r20	; 0x03
     306:	5c 83       	std	Y+4, r21	; 0x04
     308:	6d 83       	std	Y+5, r22	; 0x05
     30a:	7e 83       	std	Y+6, r23	; 0x06
     30c:	8f 83       	std	Y+7, r24	; 0x07
     30e:	98 87       	std	Y+8, r25	; 0x08
     310:	ce 01       	movw	r24, r28
     312:	09 96       	adiw	r24, 0x09	; 9
     314:	fc 01       	movw	r30, r24
     316:	11 92       	st	Z+, r1
     318:	aa 95       	dec	r26
     31a:	e9 f7       	brne	.-6      	; 0x316 <__udivdi3+0x36>
     31c:	a9 86       	std	Y+9, r10	; 0x09
     31e:	ba 86       	std	Y+10, r11	; 0x0a
     320:	cb 86       	std	Y+11, r12	; 0x0b
     322:	dc 86       	std	Y+12, r13	; 0x0c
     324:	ed 86       	std	Y+13, r14	; 0x0d
     326:	fe 86       	std	Y+14, r15	; 0x0e
     328:	0f 87       	std	Y+15, r16	; 0x0f
     32a:	18 8b       	std	Y+16, r17	; 0x10
     32c:	29 84       	ldd	r2, Y+9	; 0x09
     32e:	3a 84       	ldd	r3, Y+10	; 0x0a
     330:	4b 84       	ldd	r4, Y+11	; 0x0b
     332:	5c 84       	ldd	r5, Y+12	; 0x0c
     334:	ed 84       	ldd	r14, Y+13	; 0x0d
     336:	fe 84       	ldd	r15, Y+14	; 0x0e
     338:	0f 85       	ldd	r16, Y+15	; 0x0f
     33a:	18 89       	ldd	r17, Y+16	; 0x10
     33c:	69 80       	ldd	r6, Y+1	; 0x01
     33e:	7a 80       	ldd	r7, Y+2	; 0x02
     340:	8b 80       	ldd	r8, Y+3	; 0x03
     342:	9c 80       	ldd	r9, Y+4	; 0x04
     344:	6d a6       	std	Y+45, r6	; 0x2d
     346:	7e a6       	std	Y+46, r7	; 0x2e
     348:	8f a6       	std	Y+47, r8	; 0x2f
     34a:	98 aa       	std	Y+48, r9	; 0x30
     34c:	6d 80       	ldd	r6, Y+5	; 0x05
     34e:	7e 80       	ldd	r7, Y+6	; 0x06
     350:	8f 80       	ldd	r8, Y+7	; 0x07
     352:	98 84       	ldd	r9, Y+8	; 0x08
     354:	e1 14       	cp	r14, r1
     356:	f1 04       	cpc	r15, r1
     358:	01 05       	cpc	r16, r1
     35a:	11 05       	cpc	r17, r1
     35c:	09 f0       	breq	.+2      	; 0x360 <__udivdi3+0x80>
     35e:	b3 c3       	rjmp	.+1894   	; 0xac6 <__stack+0x267>
     360:	62 14       	cp	r6, r2
     362:	73 04       	cpc	r7, r3
     364:	84 04       	cpc	r8, r4
     366:	95 04       	cpc	r9, r5
     368:	08 f0       	brcs	.+2      	; 0x36c <__udivdi3+0x8c>
     36a:	3d c1       	rjmp	.+634    	; 0x5e6 <__udivdi3+0x306>
     36c:	00 e0       	ldi	r16, 0x00	; 0
     36e:	20 16       	cp	r2, r16
     370:	00 e0       	ldi	r16, 0x00	; 0
     372:	30 06       	cpc	r3, r16
     374:	01 e0       	ldi	r16, 0x01	; 1
     376:	40 06       	cpc	r4, r16
     378:	00 e0       	ldi	r16, 0x00	; 0
     37a:	50 06       	cpc	r5, r16
     37c:	88 f4       	brcc	.+34     	; 0x3a0 <__udivdi3+0xc0>
     37e:	1f ef       	ldi	r17, 0xFF	; 255
     380:	21 16       	cp	r2, r17
     382:	31 04       	cpc	r3, r1
     384:	41 04       	cpc	r4, r1
     386:	51 04       	cpc	r5, r1
     388:	39 f0       	breq	.+14     	; 0x398 <__udivdi3+0xb8>
     38a:	30 f0       	brcs	.+12     	; 0x398 <__udivdi3+0xb8>
     38c:	48 e0       	ldi	r20, 0x08	; 8
     38e:	e4 2e       	mov	r14, r20
     390:	f1 2c       	mov	r15, r1
     392:	01 2d       	mov	r16, r1
     394:	11 2d       	mov	r17, r1
     396:	18 c0       	rjmp	.+48     	; 0x3c8 <__udivdi3+0xe8>
     398:	ee 24       	eor	r14, r14
     39a:	ff 24       	eor	r15, r15
     39c:	87 01       	movw	r16, r14
     39e:	14 c0       	rjmp	.+40     	; 0x3c8 <__udivdi3+0xe8>
     3a0:	20 e0       	ldi	r18, 0x00	; 0
     3a2:	22 16       	cp	r2, r18
     3a4:	20 e0       	ldi	r18, 0x00	; 0
     3a6:	32 06       	cpc	r3, r18
     3a8:	20 e0       	ldi	r18, 0x00	; 0
     3aa:	42 06       	cpc	r4, r18
     3ac:	21 e0       	ldi	r18, 0x01	; 1
     3ae:	52 06       	cpc	r5, r18
     3b0:	30 f0       	brcs	.+12     	; 0x3be <__udivdi3+0xde>
     3b2:	38 e1       	ldi	r19, 0x18	; 24
     3b4:	e3 2e       	mov	r14, r19
     3b6:	f1 2c       	mov	r15, r1
     3b8:	01 2d       	mov	r16, r1
     3ba:	11 2d       	mov	r17, r1
     3bc:	05 c0       	rjmp	.+10     	; 0x3c8 <__udivdi3+0xe8>
     3be:	20 e1       	ldi	r18, 0x10	; 16
     3c0:	e2 2e       	mov	r14, r18
     3c2:	f1 2c       	mov	r15, r1
     3c4:	01 2d       	mov	r16, r1
     3c6:	11 2d       	mov	r17, r1
     3c8:	d2 01       	movw	r26, r4
     3ca:	c1 01       	movw	r24, r2
     3cc:	0e 2c       	mov	r0, r14
     3ce:	04 c0       	rjmp	.+8      	; 0x3d8 <__udivdi3+0xf8>
     3d0:	b6 95       	lsr	r27
     3d2:	a7 95       	ror	r26
     3d4:	97 95       	ror	r25
     3d6:	87 95       	ror	r24
     3d8:	0a 94       	dec	r0
     3da:	d2 f7       	brpl	.-12     	; 0x3d0 <__udivdi3+0xf0>
     3dc:	88 59       	subi	r24, 0x98	; 152
     3de:	9f 4f       	sbci	r25, 0xFF	; 255
     3e0:	dc 01       	movw	r26, r24
     3e2:	2c 91       	ld	r18, X
     3e4:	80 e2       	ldi	r24, 0x20	; 32
     3e6:	90 e0       	ldi	r25, 0x00	; 0
     3e8:	a0 e0       	ldi	r26, 0x00	; 0
     3ea:	b0 e0       	ldi	r27, 0x00	; 0
     3ec:	8e 19       	sub	r24, r14
     3ee:	9f 09       	sbc	r25, r15
     3f0:	a0 0b       	sbc	r26, r16
     3f2:	b1 0b       	sbc	r27, r17
     3f4:	7c 01       	movw	r14, r24
     3f6:	8d 01       	movw	r16, r26
     3f8:	e2 1a       	sub	r14, r18
     3fa:	f1 08       	sbc	r15, r1
     3fc:	01 09       	sbc	r16, r1
     3fe:	11 09       	sbc	r17, r1
     400:	e1 14       	cp	r14, r1
     402:	f1 04       	cpc	r15, r1
     404:	01 05       	cpc	r16, r1
     406:	11 05       	cpc	r17, r1
     408:	a1 f1       	breq	.+104    	; 0x472 <__udivdi3+0x192>
     40a:	0e 2c       	mov	r0, r14
     40c:	04 c0       	rjmp	.+8      	; 0x416 <__udivdi3+0x136>
     40e:	22 0c       	add	r2, r2
     410:	33 1c       	adc	r3, r3
     412:	44 1c       	adc	r4, r4
     414:	55 1c       	adc	r5, r5
     416:	0a 94       	dec	r0
     418:	d2 f7       	brpl	.-12     	; 0x40e <__udivdi3+0x12e>
     41a:	a4 01       	movw	r20, r8
     41c:	93 01       	movw	r18, r6
     41e:	0e 2c       	mov	r0, r14
     420:	04 c0       	rjmp	.+8      	; 0x42a <__udivdi3+0x14a>
     422:	22 0f       	add	r18, r18
     424:	33 1f       	adc	r19, r19
     426:	44 1f       	adc	r20, r20
     428:	55 1f       	adc	r21, r21
     42a:	0a 94       	dec	r0
     42c:	d2 f7       	brpl	.-12     	; 0x422 <__udivdi3+0x142>
     42e:	80 e2       	ldi	r24, 0x20	; 32
     430:	90 e0       	ldi	r25, 0x00	; 0
     432:	8e 19       	sub	r24, r14
     434:	9f 09       	sbc	r25, r15
     436:	6d a4       	ldd	r6, Y+45	; 0x2d
     438:	7e a4       	ldd	r7, Y+46	; 0x2e
     43a:	8f a4       	ldd	r8, Y+47	; 0x2f
     43c:	98 a8       	ldd	r9, Y+48	; 0x30
     43e:	04 c0       	rjmp	.+8      	; 0x448 <__udivdi3+0x168>
     440:	96 94       	lsr	r9
     442:	87 94       	ror	r8
     444:	77 94       	ror	r7
     446:	67 94       	ror	r6
     448:	8a 95       	dec	r24
     44a:	d2 f7       	brpl	.-12     	; 0x440 <__udivdi3+0x160>
     44c:	62 2a       	or	r6, r18
     44e:	73 2a       	or	r7, r19
     450:	84 2a       	or	r8, r20
     452:	95 2a       	or	r9, r21
     454:	ad a4       	ldd	r10, Y+45	; 0x2d
     456:	be a4       	ldd	r11, Y+46	; 0x2e
     458:	cf a4       	ldd	r12, Y+47	; 0x2f
     45a:	d8 a8       	ldd	r13, Y+48	; 0x30
     45c:	04 c0       	rjmp	.+8      	; 0x466 <__udivdi3+0x186>
     45e:	aa 0c       	add	r10, r10
     460:	bb 1c       	adc	r11, r11
     462:	cc 1c       	adc	r12, r12
     464:	dd 1c       	adc	r13, r13
     466:	ea 94       	dec	r14
     468:	d2 f7       	brpl	.-12     	; 0x45e <__udivdi3+0x17e>
     46a:	ad a6       	std	Y+45, r10	; 0x2d
     46c:	be a6       	std	Y+46, r11	; 0x2e
     46e:	cf a6       	std	Y+47, r12	; 0x2f
     470:	d8 aa       	std	Y+48, r13	; 0x30
     472:	62 01       	movw	r12, r4
     474:	ee 24       	eor	r14, r14
     476:	ff 24       	eor	r15, r15
     478:	cd aa       	std	Y+53, r12	; 0x35
     47a:	de aa       	std	Y+54, r13	; 0x36
     47c:	ef aa       	std	Y+55, r14	; 0x37
     47e:	f8 ae       	std	Y+56, r15	; 0x38
     480:	92 01       	movw	r18, r4
     482:	81 01       	movw	r16, r2
     484:	20 70       	andi	r18, 0x00	; 0
     486:	30 70       	andi	r19, 0x00	; 0
     488:	09 af       	std	Y+57, r16	; 0x39
     48a:	1a af       	std	Y+58, r17	; 0x3a
     48c:	2b af       	std	Y+59, r18	; 0x3b
     48e:	3c af       	std	Y+60, r19	; 0x3c
     490:	c4 01       	movw	r24, r8
     492:	b3 01       	movw	r22, r6
     494:	a7 01       	movw	r20, r14
     496:	96 01       	movw	r18, r12
     498:	0e 94 7a 1f 	call	0x3ef4	; 0x3ef4 <__udivmodsi4>
     49c:	7b 01       	movw	r14, r22
     49e:	8c 01       	movw	r16, r24
     4a0:	c4 01       	movw	r24, r8
     4a2:	b3 01       	movw	r22, r6
     4a4:	2d a9       	ldd	r18, Y+53	; 0x35
     4a6:	3e a9       	ldd	r19, Y+54	; 0x36
     4a8:	4f a9       	ldd	r20, Y+55	; 0x37
     4aa:	58 ad       	ldd	r21, Y+56	; 0x38
     4ac:	0e 94 7a 1f 	call	0x3ef4	; 0x3ef4 <__udivmodsi4>
     4b0:	c9 01       	movw	r24, r18
     4b2:	da 01       	movw	r26, r20
     4b4:	3c 01       	movw	r6, r24
     4b6:	4d 01       	movw	r8, r26
     4b8:	c4 01       	movw	r24, r8
     4ba:	b3 01       	movw	r22, r6
     4bc:	29 ad       	ldd	r18, Y+57	; 0x39
     4be:	3a ad       	ldd	r19, Y+58	; 0x3a
     4c0:	4b ad       	ldd	r20, Y+59	; 0x3b
     4c2:	5c ad       	ldd	r21, Y+60	; 0x3c
     4c4:	0e 94 40 1f 	call	0x3e80	; 0x3e80 <__mulsi3>
     4c8:	9b 01       	movw	r18, r22
     4ca:	ac 01       	movw	r20, r24
     4cc:	87 01       	movw	r16, r14
     4ce:	ff 24       	eor	r15, r15
     4d0:	ee 24       	eor	r14, r14
     4d2:	ad a4       	ldd	r10, Y+45	; 0x2d
     4d4:	be a4       	ldd	r11, Y+46	; 0x2e
     4d6:	cf a4       	ldd	r12, Y+47	; 0x2f
     4d8:	d8 a8       	ldd	r13, Y+48	; 0x30
     4da:	c6 01       	movw	r24, r12
     4dc:	aa 27       	eor	r26, r26
     4de:	bb 27       	eor	r27, r27
     4e0:	57 01       	movw	r10, r14
     4e2:	68 01       	movw	r12, r16
     4e4:	a8 2a       	or	r10, r24
     4e6:	b9 2a       	or	r11, r25
     4e8:	ca 2a       	or	r12, r26
     4ea:	db 2a       	or	r13, r27
     4ec:	a2 16       	cp	r10, r18
     4ee:	b3 06       	cpc	r11, r19
     4f0:	c4 06       	cpc	r12, r20
     4f2:	d5 06       	cpc	r13, r21
     4f4:	e0 f4       	brcc	.+56     	; 0x52e <__udivdi3+0x24e>
     4f6:	08 94       	sec
     4f8:	61 08       	sbc	r6, r1
     4fa:	71 08       	sbc	r7, r1
     4fc:	81 08       	sbc	r8, r1
     4fe:	91 08       	sbc	r9, r1
     500:	a2 0c       	add	r10, r2
     502:	b3 1c       	adc	r11, r3
     504:	c4 1c       	adc	r12, r4
     506:	d5 1c       	adc	r13, r5
     508:	a2 14       	cp	r10, r2
     50a:	b3 04       	cpc	r11, r3
     50c:	c4 04       	cpc	r12, r4
     50e:	d5 04       	cpc	r13, r5
     510:	70 f0       	brcs	.+28     	; 0x52e <__udivdi3+0x24e>
     512:	a2 16       	cp	r10, r18
     514:	b3 06       	cpc	r11, r19
     516:	c4 06       	cpc	r12, r20
     518:	d5 06       	cpc	r13, r21
     51a:	48 f4       	brcc	.+18     	; 0x52e <__udivdi3+0x24e>
     51c:	08 94       	sec
     51e:	61 08       	sbc	r6, r1
     520:	71 08       	sbc	r7, r1
     522:	81 08       	sbc	r8, r1
     524:	91 08       	sbc	r9, r1
     526:	a2 0c       	add	r10, r2
     528:	b3 1c       	adc	r11, r3
     52a:	c4 1c       	adc	r12, r4
     52c:	d5 1c       	adc	r13, r5
     52e:	a2 1a       	sub	r10, r18
     530:	b3 0a       	sbc	r11, r19
     532:	c4 0a       	sbc	r12, r20
     534:	d5 0a       	sbc	r13, r21
     536:	c6 01       	movw	r24, r12
     538:	b5 01       	movw	r22, r10
     53a:	2d a9       	ldd	r18, Y+53	; 0x35
     53c:	3e a9       	ldd	r19, Y+54	; 0x36
     53e:	4f a9       	ldd	r20, Y+55	; 0x37
     540:	58 ad       	ldd	r21, Y+56	; 0x38
     542:	0e 94 7a 1f 	call	0x3ef4	; 0x3ef4 <__udivmodsi4>
     546:	7b 01       	movw	r14, r22
     548:	8c 01       	movw	r16, r24
     54a:	c6 01       	movw	r24, r12
     54c:	b5 01       	movw	r22, r10
     54e:	2d a9       	ldd	r18, Y+53	; 0x35
     550:	3e a9       	ldd	r19, Y+54	; 0x36
     552:	4f a9       	ldd	r20, Y+55	; 0x37
     554:	58 ad       	ldd	r21, Y+56	; 0x38
     556:	0e 94 7a 1f 	call	0x3ef4	; 0x3ef4 <__udivmodsi4>
     55a:	c9 01       	movw	r24, r18
     55c:	da 01       	movw	r26, r20
     55e:	5c 01       	movw	r10, r24
     560:	6d 01       	movw	r12, r26
     562:	c6 01       	movw	r24, r12
     564:	b5 01       	movw	r22, r10
     566:	29 ad       	ldd	r18, Y+57	; 0x39
     568:	3a ad       	ldd	r19, Y+58	; 0x3a
     56a:	4b ad       	ldd	r20, Y+59	; 0x3b
     56c:	5c ad       	ldd	r21, Y+60	; 0x3c
     56e:	0e 94 40 1f 	call	0x3e80	; 0x3e80 <__mulsi3>
     572:	9b 01       	movw	r18, r22
     574:	ac 01       	movw	r20, r24
     576:	87 01       	movw	r16, r14
     578:	ff 24       	eor	r15, r15
     57a:	ee 24       	eor	r14, r14
     57c:	8d a5       	ldd	r24, Y+45	; 0x2d
     57e:	9e a5       	ldd	r25, Y+46	; 0x2e
     580:	af a5       	ldd	r26, Y+47	; 0x2f
     582:	b8 a9       	ldd	r27, Y+48	; 0x30
     584:	a0 70       	andi	r26, 0x00	; 0
     586:	b0 70       	andi	r27, 0x00	; 0
     588:	e8 2a       	or	r14, r24
     58a:	f9 2a       	or	r15, r25
     58c:	0a 2b       	or	r16, r26
     58e:	1b 2b       	or	r17, r27
     590:	e2 16       	cp	r14, r18
     592:	f3 06       	cpc	r15, r19
     594:	04 07       	cpc	r16, r20
     596:	15 07       	cpc	r17, r21
     598:	c0 f4       	brcc	.+48     	; 0x5ca <__udivdi3+0x2ea>
     59a:	08 94       	sec
     59c:	a1 08       	sbc	r10, r1
     59e:	b1 08       	sbc	r11, r1
     5a0:	c1 08       	sbc	r12, r1
     5a2:	d1 08       	sbc	r13, r1
     5a4:	e2 0c       	add	r14, r2
     5a6:	f3 1c       	adc	r15, r3
     5a8:	04 1d       	adc	r16, r4
     5aa:	15 1d       	adc	r17, r5
     5ac:	e2 14       	cp	r14, r2
     5ae:	f3 04       	cpc	r15, r3
     5b0:	04 05       	cpc	r16, r4
     5b2:	15 05       	cpc	r17, r5
     5b4:	50 f0       	brcs	.+20     	; 0x5ca <__udivdi3+0x2ea>
     5b6:	e2 16       	cp	r14, r18
     5b8:	f3 06       	cpc	r15, r19
     5ba:	04 07       	cpc	r16, r20
     5bc:	15 07       	cpc	r17, r21
     5be:	28 f4       	brcc	.+10     	; 0x5ca <__udivdi3+0x2ea>
     5c0:	08 94       	sec
     5c2:	a1 08       	sbc	r10, r1
     5c4:	b1 08       	sbc	r11, r1
     5c6:	c1 08       	sbc	r12, r1
     5c8:	d1 08       	sbc	r13, r1
     5ca:	d3 01       	movw	r26, r6
     5cc:	99 27       	eor	r25, r25
     5ce:	88 27       	eor	r24, r24
     5d0:	86 01       	movw	r16, r12
     5d2:	75 01       	movw	r14, r10
     5d4:	e8 2a       	or	r14, r24
     5d6:	f9 2a       	or	r15, r25
     5d8:	0a 2b       	or	r16, r26
     5da:	1b 2b       	or	r17, r27
     5dc:	e9 aa       	std	Y+49, r14	; 0x31
     5de:	fa aa       	std	Y+50, r15	; 0x32
     5e0:	0b ab       	std	Y+51, r16	; 0x33
     5e2:	1c ab       	std	Y+52, r17	; 0x34
     5e4:	cf c4       	rjmp	.+2462   	; 0xf84 <__stack+0x725>
     5e6:	21 14       	cp	r2, r1
     5e8:	31 04       	cpc	r3, r1
     5ea:	41 04       	cpc	r4, r1
     5ec:	51 04       	cpc	r5, r1
     5ee:	71 f4       	brne	.+28     	; 0x60c <__udivdi3+0x32c>
     5f0:	61 e0       	ldi	r22, 0x01	; 1
     5f2:	70 e0       	ldi	r23, 0x00	; 0
     5f4:	80 e0       	ldi	r24, 0x00	; 0
     5f6:	90 e0       	ldi	r25, 0x00	; 0
     5f8:	20 e0       	ldi	r18, 0x00	; 0
     5fa:	30 e0       	ldi	r19, 0x00	; 0
     5fc:	40 e0       	ldi	r20, 0x00	; 0
     5fe:	50 e0       	ldi	r21, 0x00	; 0
     600:	0e 94 7a 1f 	call	0x3ef4	; 0x3ef4 <__udivmodsi4>
     604:	c9 01       	movw	r24, r18
     606:	da 01       	movw	r26, r20
     608:	1c 01       	movw	r2, r24
     60a:	2d 01       	movw	r4, r26
     60c:	00 e0       	ldi	r16, 0x00	; 0
     60e:	20 16       	cp	r2, r16
     610:	00 e0       	ldi	r16, 0x00	; 0
     612:	30 06       	cpc	r3, r16
     614:	01 e0       	ldi	r16, 0x01	; 1
     616:	40 06       	cpc	r4, r16
     618:	00 e0       	ldi	r16, 0x00	; 0
     61a:	50 06       	cpc	r5, r16
     61c:	88 f4       	brcc	.+34     	; 0x640 <__udivdi3+0x360>
     61e:	1f ef       	ldi	r17, 0xFF	; 255
     620:	21 16       	cp	r2, r17
     622:	31 04       	cpc	r3, r1
     624:	41 04       	cpc	r4, r1
     626:	51 04       	cpc	r5, r1
     628:	31 f0       	breq	.+12     	; 0x636 <__udivdi3+0x356>
     62a:	28 f0       	brcs	.+10     	; 0x636 <__udivdi3+0x356>
     62c:	48 e0       	ldi	r20, 0x08	; 8
     62e:	50 e0       	ldi	r21, 0x00	; 0
     630:	60 e0       	ldi	r22, 0x00	; 0
     632:	70 e0       	ldi	r23, 0x00	; 0
     634:	17 c0       	rjmp	.+46     	; 0x664 <__udivdi3+0x384>
     636:	40 e0       	ldi	r20, 0x00	; 0
     638:	50 e0       	ldi	r21, 0x00	; 0
     63a:	60 e0       	ldi	r22, 0x00	; 0
     63c:	70 e0       	ldi	r23, 0x00	; 0
     63e:	12 c0       	rjmp	.+36     	; 0x664 <__udivdi3+0x384>
     640:	20 e0       	ldi	r18, 0x00	; 0
     642:	22 16       	cp	r2, r18
     644:	20 e0       	ldi	r18, 0x00	; 0
     646:	32 06       	cpc	r3, r18
     648:	20 e0       	ldi	r18, 0x00	; 0
     64a:	42 06       	cpc	r4, r18
     64c:	21 e0       	ldi	r18, 0x01	; 1
     64e:	52 06       	cpc	r5, r18
     650:	28 f0       	brcs	.+10     	; 0x65c <__udivdi3+0x37c>
     652:	48 e1       	ldi	r20, 0x18	; 24
     654:	50 e0       	ldi	r21, 0x00	; 0
     656:	60 e0       	ldi	r22, 0x00	; 0
     658:	70 e0       	ldi	r23, 0x00	; 0
     65a:	04 c0       	rjmp	.+8      	; 0x664 <__udivdi3+0x384>
     65c:	40 e1       	ldi	r20, 0x10	; 16
     65e:	50 e0       	ldi	r21, 0x00	; 0
     660:	60 e0       	ldi	r22, 0x00	; 0
     662:	70 e0       	ldi	r23, 0x00	; 0
     664:	d2 01       	movw	r26, r4
     666:	c1 01       	movw	r24, r2
     668:	04 2e       	mov	r0, r20
     66a:	04 c0       	rjmp	.+8      	; 0x674 <__udivdi3+0x394>
     66c:	b6 95       	lsr	r27
     66e:	a7 95       	ror	r26
     670:	97 95       	ror	r25
     672:	87 95       	ror	r24
     674:	0a 94       	dec	r0
     676:	d2 f7       	brpl	.-12     	; 0x66c <__udivdi3+0x38c>
     678:	88 59       	subi	r24, 0x98	; 152
     67a:	9f 4f       	sbci	r25, 0xFF	; 255
     67c:	dc 01       	movw	r26, r24
     67e:	2c 91       	ld	r18, X
     680:	e0 e2       	ldi	r30, 0x20	; 32
     682:	ee 2e       	mov	r14, r30
     684:	f1 2c       	mov	r15, r1
     686:	01 2d       	mov	r16, r1
     688:	11 2d       	mov	r17, r1
     68a:	d8 01       	movw	r26, r16
     68c:	c7 01       	movw	r24, r14
     68e:	84 1b       	sub	r24, r20
     690:	95 0b       	sbc	r25, r21
     692:	a6 0b       	sbc	r26, r22
     694:	b7 0b       	sbc	r27, r23
     696:	82 1b       	sub	r24, r18
     698:	91 09       	sbc	r25, r1
     69a:	a1 09       	sbc	r26, r1
     69c:	b1 09       	sbc	r27, r1
     69e:	00 97       	sbiw	r24, 0x00	; 0
     6a0:	a1 05       	cpc	r26, r1
     6a2:	b1 05       	cpc	r27, r1
     6a4:	61 f4       	brne	.+24     	; 0x6be <__udivdi3+0x3de>
     6a6:	64 01       	movw	r12, r8
     6a8:	53 01       	movw	r10, r6
     6aa:	a2 18       	sub	r10, r2
     6ac:	b3 08       	sbc	r11, r3
     6ae:	c4 08       	sbc	r12, r4
     6b0:	d5 08       	sbc	r13, r5
     6b2:	31 e0       	ldi	r19, 0x01	; 1
     6b4:	63 2e       	mov	r6, r19
     6b6:	71 2c       	mov	r7, r1
     6b8:	81 2c       	mov	r8, r1
     6ba:	91 2c       	mov	r9, r1
     6bc:	1e c1       	rjmp	.+572    	; 0x8fa <__stack+0x9b>
     6be:	6f 96       	adiw	r28, 0x1f	; 31
     6c0:	8f af       	std	Y+63, r24	; 0x3f
     6c2:	6f 97       	sbiw	r28, 0x1f	; 31
     6c4:	08 2e       	mov	r0, r24
     6c6:	04 c0       	rjmp	.+8      	; 0x6d0 <__udivdi3+0x3f0>
     6c8:	22 0c       	add	r2, r2
     6ca:	33 1c       	adc	r3, r3
     6cc:	44 1c       	adc	r4, r4
     6ce:	55 1c       	adc	r5, r5
     6d0:	0a 94       	dec	r0
     6d2:	d2 f7       	brpl	.-12     	; 0x6c8 <__udivdi3+0x3e8>
     6d4:	ee 2d       	mov	r30, r14
     6d6:	e8 1b       	sub	r30, r24
     6d8:	64 01       	movw	r12, r8
     6da:	53 01       	movw	r10, r6
     6dc:	0e 2e       	mov	r0, r30
     6de:	04 c0       	rjmp	.+8      	; 0x6e8 <__udivdi3+0x408>
     6e0:	d6 94       	lsr	r13
     6e2:	c7 94       	ror	r12
     6e4:	b7 94       	ror	r11
     6e6:	a7 94       	ror	r10
     6e8:	0a 94       	dec	r0
     6ea:	d2 f7       	brpl	.-12     	; 0x6e0 <__udivdi3+0x400>
     6ec:	a4 01       	movw	r20, r8
     6ee:	93 01       	movw	r18, r6
     6f0:	6f 96       	adiw	r28, 0x1f	; 31
     6f2:	0f ac       	ldd	r0, Y+63	; 0x3f
     6f4:	6f 97       	sbiw	r28, 0x1f	; 31
     6f6:	04 c0       	rjmp	.+8      	; 0x700 <__udivdi3+0x420>
     6f8:	22 0f       	add	r18, r18
     6fa:	33 1f       	adc	r19, r19
     6fc:	44 1f       	adc	r20, r20
     6fe:	55 1f       	adc	r21, r21
     700:	0a 94       	dec	r0
     702:	d2 f7       	brpl	.-12     	; 0x6f8 <__udivdi3+0x418>
     704:	6d a4       	ldd	r6, Y+45	; 0x2d
     706:	7e a4       	ldd	r7, Y+46	; 0x2e
     708:	8f a4       	ldd	r8, Y+47	; 0x2f
     70a:	98 a8       	ldd	r9, Y+48	; 0x30
     70c:	0e 2e       	mov	r0, r30
     70e:	04 c0       	rjmp	.+8      	; 0x718 <__udivdi3+0x438>
     710:	96 94       	lsr	r9
     712:	87 94       	ror	r8
     714:	77 94       	ror	r7
     716:	67 94       	ror	r6
     718:	0a 94       	dec	r0
     71a:	d2 f7       	brpl	.-12     	; 0x710 <__udivdi3+0x430>
     71c:	84 01       	movw	r16, r8
     71e:	73 01       	movw	r14, r6
     720:	e2 2a       	or	r14, r18
     722:	f3 2a       	or	r15, r19
     724:	04 2b       	or	r16, r20
     726:	15 2b       	or	r17, r21
     728:	e9 a6       	std	Y+41, r14	; 0x29
     72a:	fa a6       	std	Y+42, r15	; 0x2a
     72c:	0b a7       	std	Y+43, r16	; 0x2b
     72e:	1c a7       	std	Y+44, r17	; 0x2c
     730:	32 01       	movw	r6, r4
     732:	88 24       	eor	r8, r8
     734:	99 24       	eor	r9, r9
     736:	92 01       	movw	r18, r4
     738:	81 01       	movw	r16, r2
     73a:	20 70       	andi	r18, 0x00	; 0
     73c:	30 70       	andi	r19, 0x00	; 0
     73e:	21 96       	adiw	r28, 0x01	; 1
     740:	0c af       	std	Y+60, r16	; 0x3c
     742:	1d af       	std	Y+61, r17	; 0x3d
     744:	2e af       	std	Y+62, r18	; 0x3e
     746:	3f af       	std	Y+63, r19	; 0x3f
     748:	21 97       	sbiw	r28, 0x01	; 1
     74a:	c6 01       	movw	r24, r12
     74c:	b5 01       	movw	r22, r10
     74e:	a4 01       	movw	r20, r8
     750:	93 01       	movw	r18, r6
     752:	0e 94 7a 1f 	call	0x3ef4	; 0x3ef4 <__udivmodsi4>
     756:	7b 01       	movw	r14, r22
     758:	8c 01       	movw	r16, r24
     75a:	c6 01       	movw	r24, r12
     75c:	b5 01       	movw	r22, r10
     75e:	a4 01       	movw	r20, r8
     760:	93 01       	movw	r18, r6
     762:	0e 94 7a 1f 	call	0x3ef4	; 0x3ef4 <__udivmodsi4>
     766:	c9 01       	movw	r24, r18
     768:	da 01       	movw	r26, r20
     76a:	25 96       	adiw	r28, 0x05	; 5
     76c:	8c af       	std	Y+60, r24	; 0x3c
     76e:	9d af       	std	Y+61, r25	; 0x3d
     770:	ae af       	std	Y+62, r26	; 0x3e
     772:	bf af       	std	Y+63, r27	; 0x3f
     774:	25 97       	sbiw	r28, 0x05	; 5
     776:	bc 01       	movw	r22, r24
     778:	cd 01       	movw	r24, r26
     77a:	21 96       	adiw	r28, 0x01	; 1
     77c:	2c ad       	ldd	r18, Y+60	; 0x3c
     77e:	3d ad       	ldd	r19, Y+61	; 0x3d
     780:	4e ad       	ldd	r20, Y+62	; 0x3e
     782:	5f ad       	ldd	r21, Y+63	; 0x3f
     784:	21 97       	sbiw	r28, 0x01	; 1
     786:	0e 94 40 1f 	call	0x3e80	; 0x3e80 <__mulsi3>
     78a:	9b 01       	movw	r18, r22
     78c:	ac 01       	movw	r20, r24
     78e:	87 01       	movw	r16, r14
     790:	ff 24       	eor	r15, r15
     792:	ee 24       	eor	r14, r14
     794:	a9 a4       	ldd	r10, Y+41	; 0x29
     796:	ba a4       	ldd	r11, Y+42	; 0x2a
     798:	cb a4       	ldd	r12, Y+43	; 0x2b
     79a:	dc a4       	ldd	r13, Y+44	; 0x2c
     79c:	c6 01       	movw	r24, r12
     79e:	aa 27       	eor	r26, r26
     7a0:	bb 27       	eor	r27, r27
     7a2:	5c 01       	movw	r10, r24
     7a4:	6d 01       	movw	r12, r26
     7a6:	ae 28       	or	r10, r14
     7a8:	bf 28       	or	r11, r15
     7aa:	c0 2a       	or	r12, r16
     7ac:	d1 2a       	or	r13, r17
     7ae:	a2 16       	cp	r10, r18
     7b0:	b3 06       	cpc	r11, r19
     7b2:	c4 06       	cpc	r12, r20
     7b4:	d5 06       	cpc	r13, r21
     7b6:	60 f5       	brcc	.+88     	; 0x810 <__udivdi3+0x530>
     7b8:	25 96       	adiw	r28, 0x05	; 5
     7ba:	6c ad       	ldd	r22, Y+60	; 0x3c
     7bc:	7d ad       	ldd	r23, Y+61	; 0x3d
     7be:	8e ad       	ldd	r24, Y+62	; 0x3e
     7c0:	9f ad       	ldd	r25, Y+63	; 0x3f
     7c2:	25 97       	sbiw	r28, 0x05	; 5
     7c4:	61 50       	subi	r22, 0x01	; 1
     7c6:	70 40       	sbci	r23, 0x00	; 0
     7c8:	80 40       	sbci	r24, 0x00	; 0
     7ca:	90 40       	sbci	r25, 0x00	; 0
     7cc:	25 96       	adiw	r28, 0x05	; 5
     7ce:	6c af       	std	Y+60, r22	; 0x3c
     7d0:	7d af       	std	Y+61, r23	; 0x3d
     7d2:	8e af       	std	Y+62, r24	; 0x3e
     7d4:	9f af       	std	Y+63, r25	; 0x3f
     7d6:	25 97       	sbiw	r28, 0x05	; 5
     7d8:	a2 0c       	add	r10, r2
     7da:	b3 1c       	adc	r11, r3
     7dc:	c4 1c       	adc	r12, r4
     7de:	d5 1c       	adc	r13, r5
     7e0:	a2 14       	cp	r10, r2
     7e2:	b3 04       	cpc	r11, r3
     7e4:	c4 04       	cpc	r12, r4
     7e6:	d5 04       	cpc	r13, r5
     7e8:	98 f0       	brcs	.+38     	; 0x810 <__udivdi3+0x530>
     7ea:	a2 16       	cp	r10, r18
     7ec:	b3 06       	cpc	r11, r19
     7ee:	c4 06       	cpc	r12, r20
     7f0:	d5 06       	cpc	r13, r21
     7f2:	70 f4       	brcc	.+28     	; 0x810 <__udivdi3+0x530>
     7f4:	61 50       	subi	r22, 0x01	; 1
     7f6:	70 40       	sbci	r23, 0x00	; 0
     7f8:	80 40       	sbci	r24, 0x00	; 0
     7fa:	90 40       	sbci	r25, 0x00	; 0
     7fc:	25 96       	adiw	r28, 0x05	; 5
     7fe:	6c af       	std	Y+60, r22	; 0x3c
     800:	7d af       	std	Y+61, r23	; 0x3d
     802:	8e af       	std	Y+62, r24	; 0x3e
     804:	9f af       	std	Y+63, r25	; 0x3f
     806:	25 97       	sbiw	r28, 0x05	; 5
     808:	a2 0c       	add	r10, r2
     80a:	b3 1c       	adc	r11, r3
     80c:	c4 1c       	adc	r12, r4
     80e:	d5 1c       	adc	r13, r5
     810:	a2 1a       	sub	r10, r18
     812:	b3 0a       	sbc	r11, r19
     814:	c4 0a       	sbc	r12, r20
     816:	d5 0a       	sbc	r13, r21
     818:	c6 01       	movw	r24, r12
     81a:	b5 01       	movw	r22, r10
     81c:	a4 01       	movw	r20, r8
     81e:	93 01       	movw	r18, r6
     820:	0e 94 7a 1f 	call	0x3ef4	; 0x3ef4 <__udivmodsi4>
     824:	7b 01       	movw	r14, r22
     826:	8c 01       	movw	r16, r24
     828:	c6 01       	movw	r24, r12
     82a:	b5 01       	movw	r22, r10
     82c:	a4 01       	movw	r20, r8
     82e:	93 01       	movw	r18, r6
     830:	0e 94 7a 1f 	call	0x3ef4	; 0x3ef4 <__udivmodsi4>
     834:	c9 01       	movw	r24, r18
     836:	da 01       	movw	r26, r20
     838:	3c 01       	movw	r6, r24
     83a:	4d 01       	movw	r8, r26
     83c:	c4 01       	movw	r24, r8
     83e:	b3 01       	movw	r22, r6
     840:	21 96       	adiw	r28, 0x01	; 1
     842:	2c ad       	ldd	r18, Y+60	; 0x3c
     844:	3d ad       	ldd	r19, Y+61	; 0x3d
     846:	4e ad       	ldd	r20, Y+62	; 0x3e
     848:	5f ad       	ldd	r21, Y+63	; 0x3f
     84a:	21 97       	sbiw	r28, 0x01	; 1
     84c:	0e 94 40 1f 	call	0x3e80	; 0x3e80 <__mulsi3>
     850:	9b 01       	movw	r18, r22
     852:	ac 01       	movw	r20, r24
     854:	87 01       	movw	r16, r14
     856:	ff 24       	eor	r15, r15
     858:	ee 24       	eor	r14, r14
     85a:	89 a5       	ldd	r24, Y+41	; 0x29
     85c:	9a a5       	ldd	r25, Y+42	; 0x2a
     85e:	ab a5       	ldd	r26, Y+43	; 0x2b
     860:	bc a5       	ldd	r27, Y+44	; 0x2c
     862:	a0 70       	andi	r26, 0x00	; 0
     864:	b0 70       	andi	r27, 0x00	; 0
     866:	57 01       	movw	r10, r14
     868:	68 01       	movw	r12, r16
     86a:	a8 2a       	or	r10, r24
     86c:	b9 2a       	or	r11, r25
     86e:	ca 2a       	or	r12, r26
     870:	db 2a       	or	r13, r27
     872:	a2 16       	cp	r10, r18
     874:	b3 06       	cpc	r11, r19
     876:	c4 06       	cpc	r12, r20
     878:	d5 06       	cpc	r13, r21
     87a:	e0 f4       	brcc	.+56     	; 0x8b4 <__stack+0x55>
     87c:	08 94       	sec
     87e:	61 08       	sbc	r6, r1
     880:	71 08       	sbc	r7, r1
     882:	81 08       	sbc	r8, r1
     884:	91 08       	sbc	r9, r1
     886:	a2 0c       	add	r10, r2
     888:	b3 1c       	adc	r11, r3
     88a:	c4 1c       	adc	r12, r4
     88c:	d5 1c       	adc	r13, r5
     88e:	a2 14       	cp	r10, r2
     890:	b3 04       	cpc	r11, r3
     892:	c4 04       	cpc	r12, r4
     894:	d5 04       	cpc	r13, r5
     896:	70 f0       	brcs	.+28     	; 0x8b4 <__stack+0x55>
     898:	a2 16       	cp	r10, r18
     89a:	b3 06       	cpc	r11, r19
     89c:	c4 06       	cpc	r12, r20
     89e:	d5 06       	cpc	r13, r21
     8a0:	48 f4       	brcc	.+18     	; 0x8b4 <__stack+0x55>
     8a2:	08 94       	sec
     8a4:	61 08       	sbc	r6, r1
     8a6:	71 08       	sbc	r7, r1
     8a8:	81 08       	sbc	r8, r1
     8aa:	91 08       	sbc	r9, r1
     8ac:	a2 0c       	add	r10, r2
     8ae:	b3 1c       	adc	r11, r3
     8b0:	c4 1c       	adc	r12, r4
     8b2:	d5 1c       	adc	r13, r5
     8b4:	8d a5       	ldd	r24, Y+45	; 0x2d
     8b6:	9e a5       	ldd	r25, Y+46	; 0x2e
     8b8:	af a5       	ldd	r26, Y+47	; 0x2f
     8ba:	b8 a9       	ldd	r27, Y+48	; 0x30
     8bc:	6f 96       	adiw	r28, 0x1f	; 31
     8be:	0f ac       	ldd	r0, Y+63	; 0x3f
     8c0:	6f 97       	sbiw	r28, 0x1f	; 31
     8c2:	04 c0       	rjmp	.+8      	; 0x8cc <__stack+0x6d>
     8c4:	88 0f       	add	r24, r24
     8c6:	99 1f       	adc	r25, r25
     8c8:	aa 1f       	adc	r26, r26
     8ca:	bb 1f       	adc	r27, r27
     8cc:	0a 94       	dec	r0
     8ce:	d2 f7       	brpl	.-12     	; 0x8c4 <__stack+0x65>
     8d0:	8d a7       	std	Y+45, r24	; 0x2d
     8d2:	9e a7       	std	Y+46, r25	; 0x2e
     8d4:	af a7       	std	Y+47, r26	; 0x2f
     8d6:	b8 ab       	std	Y+48, r27	; 0x30
     8d8:	a2 1a       	sub	r10, r18
     8da:	b3 0a       	sbc	r11, r19
     8dc:	c4 0a       	sbc	r12, r20
     8de:	d5 0a       	sbc	r13, r21
     8e0:	25 96       	adiw	r28, 0x05	; 5
     8e2:	ec ac       	ldd	r14, Y+60	; 0x3c
     8e4:	fd ac       	ldd	r15, Y+61	; 0x3d
     8e6:	0e ad       	ldd	r16, Y+62	; 0x3e
     8e8:	1f ad       	ldd	r17, Y+63	; 0x3f
     8ea:	25 97       	sbiw	r28, 0x05	; 5
     8ec:	d7 01       	movw	r26, r14
     8ee:	99 27       	eor	r25, r25
     8f0:	88 27       	eor	r24, r24
     8f2:	68 2a       	or	r6, r24
     8f4:	79 2a       	or	r7, r25
     8f6:	8a 2a       	or	r8, r26
     8f8:	9b 2a       	or	r9, r27
     8fa:	82 01       	movw	r16, r4
     8fc:	22 27       	eor	r18, r18
     8fe:	33 27       	eor	r19, r19
     900:	29 96       	adiw	r28, 0x09	; 9
     902:	0c af       	std	Y+60, r16	; 0x3c
     904:	1d af       	std	Y+61, r17	; 0x3d
     906:	2e af       	std	Y+62, r18	; 0x3e
     908:	3f af       	std	Y+63, r19	; 0x3f
     90a:	29 97       	sbiw	r28, 0x09	; 9
     90c:	a2 01       	movw	r20, r4
     90e:	91 01       	movw	r18, r2
     910:	40 70       	andi	r20, 0x00	; 0
     912:	50 70       	andi	r21, 0x00	; 0
     914:	2d 96       	adiw	r28, 0x0d	; 13
     916:	2c af       	std	Y+60, r18	; 0x3c
     918:	3d af       	std	Y+61, r19	; 0x3d
     91a:	4e af       	std	Y+62, r20	; 0x3e
     91c:	5f af       	std	Y+63, r21	; 0x3f
     91e:	2d 97       	sbiw	r28, 0x0d	; 13
     920:	c6 01       	movw	r24, r12
     922:	b5 01       	movw	r22, r10
     924:	29 96       	adiw	r28, 0x09	; 9
     926:	2c ad       	ldd	r18, Y+60	; 0x3c
     928:	3d ad       	ldd	r19, Y+61	; 0x3d
     92a:	4e ad       	ldd	r20, Y+62	; 0x3e
     92c:	5f ad       	ldd	r21, Y+63	; 0x3f
     92e:	29 97       	sbiw	r28, 0x09	; 9
     930:	0e 94 7a 1f 	call	0x3ef4	; 0x3ef4 <__udivmodsi4>
     934:	7b 01       	movw	r14, r22
     936:	8c 01       	movw	r16, r24
     938:	c6 01       	movw	r24, r12
     93a:	b5 01       	movw	r22, r10
     93c:	29 96       	adiw	r28, 0x09	; 9
     93e:	2c ad       	ldd	r18, Y+60	; 0x3c
     940:	3d ad       	ldd	r19, Y+61	; 0x3d
     942:	4e ad       	ldd	r20, Y+62	; 0x3e
     944:	5f ad       	ldd	r21, Y+63	; 0x3f
     946:	29 97       	sbiw	r28, 0x09	; 9
     948:	0e 94 7a 1f 	call	0x3ef4	; 0x3ef4 <__udivmodsi4>
     94c:	c9 01       	movw	r24, r18
     94e:	da 01       	movw	r26, r20
     950:	61 96       	adiw	r28, 0x11	; 17
     952:	8c af       	std	Y+60, r24	; 0x3c
     954:	9d af       	std	Y+61, r25	; 0x3d
     956:	ae af       	std	Y+62, r26	; 0x3e
     958:	bf af       	std	Y+63, r27	; 0x3f
     95a:	61 97       	sbiw	r28, 0x11	; 17
     95c:	bc 01       	movw	r22, r24
     95e:	cd 01       	movw	r24, r26
     960:	2d 96       	adiw	r28, 0x0d	; 13
     962:	2c ad       	ldd	r18, Y+60	; 0x3c
     964:	3d ad       	ldd	r19, Y+61	; 0x3d
     966:	4e ad       	ldd	r20, Y+62	; 0x3e
     968:	5f ad       	ldd	r21, Y+63	; 0x3f
     96a:	2d 97       	sbiw	r28, 0x0d	; 13
     96c:	0e 94 40 1f 	call	0x3e80	; 0x3e80 <__mulsi3>
     970:	9b 01       	movw	r18, r22
     972:	ac 01       	movw	r20, r24
     974:	87 01       	movw	r16, r14
     976:	ff 24       	eor	r15, r15
     978:	ee 24       	eor	r14, r14
     97a:	ad a4       	ldd	r10, Y+45	; 0x2d
     97c:	be a4       	ldd	r11, Y+46	; 0x2e
     97e:	cf a4       	ldd	r12, Y+47	; 0x2f
     980:	d8 a8       	ldd	r13, Y+48	; 0x30
     982:	c6 01       	movw	r24, r12
     984:	aa 27       	eor	r26, r26
     986:	bb 27       	eor	r27, r27
     988:	57 01       	movw	r10, r14
     98a:	68 01       	movw	r12, r16
     98c:	a8 2a       	or	r10, r24
     98e:	b9 2a       	or	r11, r25
     990:	ca 2a       	or	r12, r26
     992:	db 2a       	or	r13, r27
     994:	a2 16       	cp	r10, r18
     996:	b3 06       	cpc	r11, r19
     998:	c4 06       	cpc	r12, r20
     99a:	d5 06       	cpc	r13, r21
     99c:	60 f5       	brcc	.+88     	; 0x9f6 <__stack+0x197>
     99e:	61 96       	adiw	r28, 0x11	; 17
     9a0:	6c ad       	ldd	r22, Y+60	; 0x3c
     9a2:	7d ad       	ldd	r23, Y+61	; 0x3d
     9a4:	8e ad       	ldd	r24, Y+62	; 0x3e
     9a6:	9f ad       	ldd	r25, Y+63	; 0x3f
     9a8:	61 97       	sbiw	r28, 0x11	; 17
     9aa:	61 50       	subi	r22, 0x01	; 1
     9ac:	70 40       	sbci	r23, 0x00	; 0
     9ae:	80 40       	sbci	r24, 0x00	; 0
     9b0:	90 40       	sbci	r25, 0x00	; 0
     9b2:	61 96       	adiw	r28, 0x11	; 17
     9b4:	6c af       	std	Y+60, r22	; 0x3c
     9b6:	7d af       	std	Y+61, r23	; 0x3d
     9b8:	8e af       	std	Y+62, r24	; 0x3e
     9ba:	9f af       	std	Y+63, r25	; 0x3f
     9bc:	61 97       	sbiw	r28, 0x11	; 17
     9be:	a2 0c       	add	r10, r2
     9c0:	b3 1c       	adc	r11, r3
     9c2:	c4 1c       	adc	r12, r4
     9c4:	d5 1c       	adc	r13, r5
     9c6:	a2 14       	cp	r10, r2
     9c8:	b3 04       	cpc	r11, r3
     9ca:	c4 04       	cpc	r12, r4
     9cc:	d5 04       	cpc	r13, r5
     9ce:	98 f0       	brcs	.+38     	; 0x9f6 <__stack+0x197>
     9d0:	a2 16       	cp	r10, r18
     9d2:	b3 06       	cpc	r11, r19
     9d4:	c4 06       	cpc	r12, r20
     9d6:	d5 06       	cpc	r13, r21
     9d8:	70 f4       	brcc	.+28     	; 0x9f6 <__stack+0x197>
     9da:	61 50       	subi	r22, 0x01	; 1
     9dc:	70 40       	sbci	r23, 0x00	; 0
     9de:	80 40       	sbci	r24, 0x00	; 0
     9e0:	90 40       	sbci	r25, 0x00	; 0
     9e2:	61 96       	adiw	r28, 0x11	; 17
     9e4:	6c af       	std	Y+60, r22	; 0x3c
     9e6:	7d af       	std	Y+61, r23	; 0x3d
     9e8:	8e af       	std	Y+62, r24	; 0x3e
     9ea:	9f af       	std	Y+63, r25	; 0x3f
     9ec:	61 97       	sbiw	r28, 0x11	; 17
     9ee:	a2 0c       	add	r10, r2
     9f0:	b3 1c       	adc	r11, r3
     9f2:	c4 1c       	adc	r12, r4
     9f4:	d5 1c       	adc	r13, r5
     9f6:	a2 1a       	sub	r10, r18
     9f8:	b3 0a       	sbc	r11, r19
     9fa:	c4 0a       	sbc	r12, r20
     9fc:	d5 0a       	sbc	r13, r21
     9fe:	c6 01       	movw	r24, r12
     a00:	b5 01       	movw	r22, r10
     a02:	29 96       	adiw	r28, 0x09	; 9
     a04:	2c ad       	ldd	r18, Y+60	; 0x3c
     a06:	3d ad       	ldd	r19, Y+61	; 0x3d
     a08:	4e ad       	ldd	r20, Y+62	; 0x3e
     a0a:	5f ad       	ldd	r21, Y+63	; 0x3f
     a0c:	29 97       	sbiw	r28, 0x09	; 9
     a0e:	0e 94 7a 1f 	call	0x3ef4	; 0x3ef4 <__udivmodsi4>
     a12:	7b 01       	movw	r14, r22
     a14:	8c 01       	movw	r16, r24
     a16:	c6 01       	movw	r24, r12
     a18:	b5 01       	movw	r22, r10
     a1a:	29 96       	adiw	r28, 0x09	; 9
     a1c:	2c ad       	ldd	r18, Y+60	; 0x3c
     a1e:	3d ad       	ldd	r19, Y+61	; 0x3d
     a20:	4e ad       	ldd	r20, Y+62	; 0x3e
     a22:	5f ad       	ldd	r21, Y+63	; 0x3f
     a24:	29 97       	sbiw	r28, 0x09	; 9
     a26:	0e 94 7a 1f 	call	0x3ef4	; 0x3ef4 <__udivmodsi4>
     a2a:	c9 01       	movw	r24, r18
     a2c:	da 01       	movw	r26, r20
     a2e:	5c 01       	movw	r10, r24
     a30:	6d 01       	movw	r12, r26
     a32:	c6 01       	movw	r24, r12
     a34:	b5 01       	movw	r22, r10
     a36:	2d 96       	adiw	r28, 0x0d	; 13
     a38:	2c ad       	ldd	r18, Y+60	; 0x3c
     a3a:	3d ad       	ldd	r19, Y+61	; 0x3d
     a3c:	4e ad       	ldd	r20, Y+62	; 0x3e
     a3e:	5f ad       	ldd	r21, Y+63	; 0x3f
     a40:	2d 97       	sbiw	r28, 0x0d	; 13
     a42:	0e 94 40 1f 	call	0x3e80	; 0x3e80 <__mulsi3>
     a46:	9b 01       	movw	r18, r22
     a48:	ac 01       	movw	r20, r24
     a4a:	87 01       	movw	r16, r14
     a4c:	ff 24       	eor	r15, r15
     a4e:	ee 24       	eor	r14, r14
     a50:	8d a5       	ldd	r24, Y+45	; 0x2d
     a52:	9e a5       	ldd	r25, Y+46	; 0x2e
     a54:	af a5       	ldd	r26, Y+47	; 0x2f
     a56:	b8 a9       	ldd	r27, Y+48	; 0x30
     a58:	a0 70       	andi	r26, 0x00	; 0
     a5a:	b0 70       	andi	r27, 0x00	; 0
     a5c:	e8 2a       	or	r14, r24
     a5e:	f9 2a       	or	r15, r25
     a60:	0a 2b       	or	r16, r26
     a62:	1b 2b       	or	r17, r27
     a64:	e2 16       	cp	r14, r18
     a66:	f3 06       	cpc	r15, r19
     a68:	04 07       	cpc	r16, r20
     a6a:	15 07       	cpc	r17, r21
     a6c:	c0 f4       	brcc	.+48     	; 0xa9e <__stack+0x23f>
     a6e:	08 94       	sec
     a70:	a1 08       	sbc	r10, r1
     a72:	b1 08       	sbc	r11, r1
     a74:	c1 08       	sbc	r12, r1
     a76:	d1 08       	sbc	r13, r1
     a78:	e2 0c       	add	r14, r2
     a7a:	f3 1c       	adc	r15, r3
     a7c:	04 1d       	adc	r16, r4
     a7e:	15 1d       	adc	r17, r5
     a80:	e2 14       	cp	r14, r2
     a82:	f3 04       	cpc	r15, r3
     a84:	04 05       	cpc	r16, r4
     a86:	15 05       	cpc	r17, r5
     a88:	50 f0       	brcs	.+20     	; 0xa9e <__stack+0x23f>
     a8a:	e2 16       	cp	r14, r18
     a8c:	f3 06       	cpc	r15, r19
     a8e:	04 07       	cpc	r16, r20
     a90:	15 07       	cpc	r17, r21
     a92:	28 f4       	brcc	.+10     	; 0xa9e <__stack+0x23f>
     a94:	08 94       	sec
     a96:	a1 08       	sbc	r10, r1
     a98:	b1 08       	sbc	r11, r1
     a9a:	c1 08       	sbc	r12, r1
     a9c:	d1 08       	sbc	r13, r1
     a9e:	61 96       	adiw	r28, 0x11	; 17
     aa0:	ec ac       	ldd	r14, Y+60	; 0x3c
     aa2:	fd ac       	ldd	r15, Y+61	; 0x3d
     aa4:	0e ad       	ldd	r16, Y+62	; 0x3e
     aa6:	1f ad       	ldd	r17, Y+63	; 0x3f
     aa8:	61 97       	sbiw	r28, 0x11	; 17
     aaa:	d7 01       	movw	r26, r14
     aac:	99 27       	eor	r25, r25
     aae:	88 27       	eor	r24, r24
     ab0:	96 01       	movw	r18, r12
     ab2:	85 01       	movw	r16, r10
     ab4:	08 2b       	or	r16, r24
     ab6:	19 2b       	or	r17, r25
     ab8:	2a 2b       	or	r18, r26
     aba:	3b 2b       	or	r19, r27
     abc:	09 ab       	std	Y+49, r16	; 0x31
     abe:	1a ab       	std	Y+50, r17	; 0x32
     ac0:	2b ab       	std	Y+51, r18	; 0x33
     ac2:	3c ab       	std	Y+52, r19	; 0x34
     ac4:	62 c2       	rjmp	.+1220   	; 0xf8a <__stack+0x72b>
     ac6:	6e 14       	cp	r6, r14
     ac8:	7f 04       	cpc	r7, r15
     aca:	80 06       	cpc	r8, r16
     acc:	91 06       	cpc	r9, r17
     ace:	08 f4       	brcc	.+2      	; 0xad2 <__stack+0x273>
     ad0:	51 c2       	rjmp	.+1186   	; 0xf74 <__stack+0x715>
     ad2:	20 e0       	ldi	r18, 0x00	; 0
     ad4:	e2 16       	cp	r14, r18
     ad6:	20 e0       	ldi	r18, 0x00	; 0
     ad8:	f2 06       	cpc	r15, r18
     ada:	21 e0       	ldi	r18, 0x01	; 1
     adc:	02 07       	cpc	r16, r18
     ade:	20 e0       	ldi	r18, 0x00	; 0
     ae0:	12 07       	cpc	r17, r18
     ae2:	88 f4       	brcc	.+34     	; 0xb06 <__stack+0x2a7>
     ae4:	3f ef       	ldi	r19, 0xFF	; 255
     ae6:	e3 16       	cp	r14, r19
     ae8:	f1 04       	cpc	r15, r1
     aea:	01 05       	cpc	r16, r1
     aec:	11 05       	cpc	r17, r1
     aee:	31 f0       	breq	.+12     	; 0xafc <__stack+0x29d>
     af0:	28 f0       	brcs	.+10     	; 0xafc <__stack+0x29d>
     af2:	48 e0       	ldi	r20, 0x08	; 8
     af4:	50 e0       	ldi	r21, 0x00	; 0
     af6:	60 e0       	ldi	r22, 0x00	; 0
     af8:	70 e0       	ldi	r23, 0x00	; 0
     afa:	17 c0       	rjmp	.+46     	; 0xb2a <__stack+0x2cb>
     afc:	40 e0       	ldi	r20, 0x00	; 0
     afe:	50 e0       	ldi	r21, 0x00	; 0
     b00:	60 e0       	ldi	r22, 0x00	; 0
     b02:	70 e0       	ldi	r23, 0x00	; 0
     b04:	12 c0       	rjmp	.+36     	; 0xb2a <__stack+0x2cb>
     b06:	40 e0       	ldi	r20, 0x00	; 0
     b08:	e4 16       	cp	r14, r20
     b0a:	40 e0       	ldi	r20, 0x00	; 0
     b0c:	f4 06       	cpc	r15, r20
     b0e:	40 e0       	ldi	r20, 0x00	; 0
     b10:	04 07       	cpc	r16, r20
     b12:	41 e0       	ldi	r20, 0x01	; 1
     b14:	14 07       	cpc	r17, r20
     b16:	28 f0       	brcs	.+10     	; 0xb22 <__stack+0x2c3>
     b18:	48 e1       	ldi	r20, 0x18	; 24
     b1a:	50 e0       	ldi	r21, 0x00	; 0
     b1c:	60 e0       	ldi	r22, 0x00	; 0
     b1e:	70 e0       	ldi	r23, 0x00	; 0
     b20:	04 c0       	rjmp	.+8      	; 0xb2a <__stack+0x2cb>
     b22:	40 e1       	ldi	r20, 0x10	; 16
     b24:	50 e0       	ldi	r21, 0x00	; 0
     b26:	60 e0       	ldi	r22, 0x00	; 0
     b28:	70 e0       	ldi	r23, 0x00	; 0
     b2a:	d8 01       	movw	r26, r16
     b2c:	c7 01       	movw	r24, r14
     b2e:	04 2e       	mov	r0, r20
     b30:	04 c0       	rjmp	.+8      	; 0xb3a <__stack+0x2db>
     b32:	b6 95       	lsr	r27
     b34:	a7 95       	ror	r26
     b36:	97 95       	ror	r25
     b38:	87 95       	ror	r24
     b3a:	0a 94       	dec	r0
     b3c:	d2 f7       	brpl	.-12     	; 0xb32 <__stack+0x2d3>
     b3e:	88 59       	subi	r24, 0x98	; 152
     b40:	9f 4f       	sbci	r25, 0xFF	; 255
     b42:	dc 01       	movw	r26, r24
     b44:	2c 91       	ld	r18, X
     b46:	30 e2       	ldi	r19, 0x20	; 32
     b48:	a3 2e       	mov	r10, r19
     b4a:	b1 2c       	mov	r11, r1
     b4c:	c1 2c       	mov	r12, r1
     b4e:	d1 2c       	mov	r13, r1
     b50:	d6 01       	movw	r26, r12
     b52:	c5 01       	movw	r24, r10
     b54:	84 1b       	sub	r24, r20
     b56:	95 0b       	sbc	r25, r21
     b58:	a6 0b       	sbc	r26, r22
     b5a:	b7 0b       	sbc	r27, r23
     b5c:	82 1b       	sub	r24, r18
     b5e:	91 09       	sbc	r25, r1
     b60:	a1 09       	sbc	r26, r1
     b62:	b1 09       	sbc	r27, r1
     b64:	00 97       	sbiw	r24, 0x00	; 0
     b66:	a1 05       	cpc	r26, r1
     b68:	b1 05       	cpc	r27, r1
     b6a:	89 f4       	brne	.+34     	; 0xb8e <__stack+0x32f>
     b6c:	e6 14       	cp	r14, r6
     b6e:	f7 04       	cpc	r15, r7
     b70:	08 05       	cpc	r16, r8
     b72:	19 05       	cpc	r17, r9
     b74:	08 f4       	brcc	.+2      	; 0xb78 <__stack+0x319>
     b76:	f2 c1       	rjmp	.+996    	; 0xf5c <__stack+0x6fd>
     b78:	6d a4       	ldd	r6, Y+45	; 0x2d
     b7a:	7e a4       	ldd	r7, Y+46	; 0x2e
     b7c:	8f a4       	ldd	r8, Y+47	; 0x2f
     b7e:	98 a8       	ldd	r9, Y+48	; 0x30
     b80:	62 14       	cp	r6, r2
     b82:	73 04       	cpc	r7, r3
     b84:	84 04       	cpc	r8, r4
     b86:	95 04       	cpc	r9, r5
     b88:	08 f0       	brcs	.+2      	; 0xb8c <__stack+0x32d>
     b8a:	e8 c1       	rjmp	.+976    	; 0xf5c <__stack+0x6fd>
     b8c:	f3 c1       	rjmp	.+998    	; 0xf74 <__stack+0x715>
     b8e:	6e 96       	adiw	r28, 0x1e	; 30
     b90:	8f af       	std	Y+63, r24	; 0x3f
     b92:	6e 97       	sbiw	r28, 0x1e	; 30
     b94:	08 2e       	mov	r0, r24
     b96:	04 c0       	rjmp	.+8      	; 0xba0 <__stack+0x341>
     b98:	ee 0c       	add	r14, r14
     b9a:	ff 1c       	adc	r15, r15
     b9c:	00 1f       	adc	r16, r16
     b9e:	11 1f       	adc	r17, r17
     ba0:	0a 94       	dec	r0
     ba2:	d2 f7       	brpl	.-12     	; 0xb98 <__stack+0x339>
     ba4:	6a 2d       	mov	r22, r10
     ba6:	68 1b       	sub	r22, r24
     ba8:	d2 01       	movw	r26, r4
     baa:	c1 01       	movw	r24, r2
     bac:	06 2e       	mov	r0, r22
     bae:	04 c0       	rjmp	.+8      	; 0xbb8 <__stack+0x359>
     bb0:	b6 95       	lsr	r27
     bb2:	a7 95       	ror	r26
     bb4:	97 95       	ror	r25
     bb6:	87 95       	ror	r24
     bb8:	0a 94       	dec	r0
     bba:	d2 f7       	brpl	.-12     	; 0xbb0 <__stack+0x351>
     bbc:	5c 01       	movw	r10, r24
     bbe:	6d 01       	movw	r12, r26
     bc0:	ae 28       	or	r10, r14
     bc2:	bf 28       	or	r11, r15
     bc4:	c0 2a       	or	r12, r16
     bc6:	d1 2a       	or	r13, r17
     bc8:	ad a2       	std	Y+37, r10	; 0x25
     bca:	be a2       	std	Y+38, r11	; 0x26
     bcc:	cf a2       	std	Y+39, r12	; 0x27
     bce:	d8 a6       	std	Y+40, r13	; 0x28
     bd0:	72 01       	movw	r14, r4
     bd2:	61 01       	movw	r12, r2
     bd4:	6e 96       	adiw	r28, 0x1e	; 30
     bd6:	0f ac       	ldd	r0, Y+63	; 0x3f
     bd8:	6e 97       	sbiw	r28, 0x1e	; 30
     bda:	04 c0       	rjmp	.+8      	; 0xbe4 <__stack+0x385>
     bdc:	cc 0c       	add	r12, r12
     bde:	dd 1c       	adc	r13, r13
     be0:	ee 1c       	adc	r14, r14
     be2:	ff 1c       	adc	r15, r15
     be4:	0a 94       	dec	r0
     be6:	d2 f7       	brpl	.-12     	; 0xbdc <__stack+0x37d>
     be8:	c9 a2       	std	Y+33, r12	; 0x21
     bea:	da a2       	std	Y+34, r13	; 0x22
     bec:	eb a2       	std	Y+35, r14	; 0x23
     bee:	fc a2       	std	Y+36, r15	; 0x24
     bf0:	64 01       	movw	r12, r8
     bf2:	53 01       	movw	r10, r6
     bf4:	06 2e       	mov	r0, r22
     bf6:	04 c0       	rjmp	.+8      	; 0xc00 <__stack+0x3a1>
     bf8:	d6 94       	lsr	r13
     bfa:	c7 94       	ror	r12
     bfc:	b7 94       	ror	r11
     bfe:	a7 94       	ror	r10
     c00:	0a 94       	dec	r0
     c02:	d2 f7       	brpl	.-12     	; 0xbf8 <__stack+0x399>
     c04:	d4 01       	movw	r26, r8
     c06:	c3 01       	movw	r24, r6
     c08:	6e 96       	adiw	r28, 0x1e	; 30
     c0a:	0f ac       	ldd	r0, Y+63	; 0x3f
     c0c:	6e 97       	sbiw	r28, 0x1e	; 30
     c0e:	04 c0       	rjmp	.+8      	; 0xc18 <__stack+0x3b9>
     c10:	88 0f       	add	r24, r24
     c12:	99 1f       	adc	r25, r25
     c14:	aa 1f       	adc	r26, r26
     c16:	bb 1f       	adc	r27, r27
     c18:	0a 94       	dec	r0
     c1a:	d2 f7       	brpl	.-12     	; 0xc10 <__stack+0x3b1>
     c1c:	ed a4       	ldd	r14, Y+45	; 0x2d
     c1e:	fe a4       	ldd	r15, Y+46	; 0x2e
     c20:	0f a5       	ldd	r16, Y+47	; 0x2f
     c22:	18 a9       	ldd	r17, Y+48	; 0x30
     c24:	04 c0       	rjmp	.+8      	; 0xc2e <__stack+0x3cf>
     c26:	16 95       	lsr	r17
     c28:	07 95       	ror	r16
     c2a:	f7 94       	ror	r15
     c2c:	e7 94       	ror	r14
     c2e:	6a 95       	dec	r22
     c30:	d2 f7       	brpl	.-12     	; 0xc26 <__stack+0x3c7>
     c32:	37 01       	movw	r6, r14
     c34:	48 01       	movw	r8, r16
     c36:	68 2a       	or	r6, r24
     c38:	79 2a       	or	r7, r25
     c3a:	8a 2a       	or	r8, r26
     c3c:	9b 2a       	or	r9, r27
     c3e:	6d 8e       	std	Y+29, r6	; 0x1d
     c40:	7e 8e       	std	Y+30, r7	; 0x1e
     c42:	8f 8e       	std	Y+31, r8	; 0x1f
     c44:	98 a2       	std	Y+32, r9	; 0x20
     c46:	ed a0       	ldd	r14, Y+37	; 0x25
     c48:	fe a0       	ldd	r15, Y+38	; 0x26
     c4a:	0f a1       	ldd	r16, Y+39	; 0x27
     c4c:	18 a5       	ldd	r17, Y+40	; 0x28
     c4e:	38 01       	movw	r6, r16
     c50:	88 24       	eor	r8, r8
     c52:	99 24       	eor	r9, r9
     c54:	98 01       	movw	r18, r16
     c56:	87 01       	movw	r16, r14
     c58:	20 70       	andi	r18, 0x00	; 0
     c5a:	30 70       	andi	r19, 0x00	; 0
     c5c:	65 96       	adiw	r28, 0x15	; 21
     c5e:	0c af       	std	Y+60, r16	; 0x3c
     c60:	1d af       	std	Y+61, r17	; 0x3d
     c62:	2e af       	std	Y+62, r18	; 0x3e
     c64:	3f af       	std	Y+63, r19	; 0x3f
     c66:	65 97       	sbiw	r28, 0x15	; 21
     c68:	c6 01       	movw	r24, r12
     c6a:	b5 01       	movw	r22, r10
     c6c:	a4 01       	movw	r20, r8
     c6e:	93 01       	movw	r18, r6
     c70:	0e 94 7a 1f 	call	0x3ef4	; 0x3ef4 <__udivmodsi4>
     c74:	7b 01       	movw	r14, r22
     c76:	8c 01       	movw	r16, r24
     c78:	c6 01       	movw	r24, r12
     c7a:	b5 01       	movw	r22, r10
     c7c:	a4 01       	movw	r20, r8
     c7e:	93 01       	movw	r18, r6
     c80:	0e 94 7a 1f 	call	0x3ef4	; 0x3ef4 <__udivmodsi4>
     c84:	c9 01       	movw	r24, r18
     c86:	da 01       	movw	r26, r20
     c88:	1c 01       	movw	r2, r24
     c8a:	2d 01       	movw	r4, r26
     c8c:	c2 01       	movw	r24, r4
     c8e:	b1 01       	movw	r22, r2
     c90:	65 96       	adiw	r28, 0x15	; 21
     c92:	2c ad       	ldd	r18, Y+60	; 0x3c
     c94:	3d ad       	ldd	r19, Y+61	; 0x3d
     c96:	4e ad       	ldd	r20, Y+62	; 0x3e
     c98:	5f ad       	ldd	r21, Y+63	; 0x3f
     c9a:	65 97       	sbiw	r28, 0x15	; 21
     c9c:	0e 94 40 1f 	call	0x3e80	; 0x3e80 <__mulsi3>
     ca0:	9b 01       	movw	r18, r22
     ca2:	ac 01       	movw	r20, r24
     ca4:	87 01       	movw	r16, r14
     ca6:	ff 24       	eor	r15, r15
     ca8:	ee 24       	eor	r14, r14
     caa:	ad 8c       	ldd	r10, Y+29	; 0x1d
     cac:	be 8c       	ldd	r11, Y+30	; 0x1e
     cae:	cf 8c       	ldd	r12, Y+31	; 0x1f
     cb0:	d8 a0       	ldd	r13, Y+32	; 0x20
     cb2:	c6 01       	movw	r24, r12
     cb4:	aa 27       	eor	r26, r26
     cb6:	bb 27       	eor	r27, r27
     cb8:	57 01       	movw	r10, r14
     cba:	68 01       	movw	r12, r16
     cbc:	a8 2a       	or	r10, r24
     cbe:	b9 2a       	or	r11, r25
     cc0:	ca 2a       	or	r12, r26
     cc2:	db 2a       	or	r13, r27
     cc4:	a2 16       	cp	r10, r18
     cc6:	b3 06       	cpc	r11, r19
     cc8:	c4 06       	cpc	r12, r20
     cca:	d5 06       	cpc	r13, r21
     ccc:	00 f5       	brcc	.+64     	; 0xd0e <__stack+0x4af>
     cce:	08 94       	sec
     cd0:	21 08       	sbc	r2, r1
     cd2:	31 08       	sbc	r3, r1
     cd4:	41 08       	sbc	r4, r1
     cd6:	51 08       	sbc	r5, r1
     cd8:	ed a0       	ldd	r14, Y+37	; 0x25
     cda:	fe a0       	ldd	r15, Y+38	; 0x26
     cdc:	0f a1       	ldd	r16, Y+39	; 0x27
     cde:	18 a5       	ldd	r17, Y+40	; 0x28
     ce0:	ae 0c       	add	r10, r14
     ce2:	bf 1c       	adc	r11, r15
     ce4:	c0 1e       	adc	r12, r16
     ce6:	d1 1e       	adc	r13, r17
     ce8:	ae 14       	cp	r10, r14
     cea:	bf 04       	cpc	r11, r15
     cec:	c0 06       	cpc	r12, r16
     cee:	d1 06       	cpc	r13, r17
     cf0:	70 f0       	brcs	.+28     	; 0xd0e <__stack+0x4af>
     cf2:	a2 16       	cp	r10, r18
     cf4:	b3 06       	cpc	r11, r19
     cf6:	c4 06       	cpc	r12, r20
     cf8:	d5 06       	cpc	r13, r21
     cfa:	48 f4       	brcc	.+18     	; 0xd0e <__stack+0x4af>
     cfc:	08 94       	sec
     cfe:	21 08       	sbc	r2, r1
     d00:	31 08       	sbc	r3, r1
     d02:	41 08       	sbc	r4, r1
     d04:	51 08       	sbc	r5, r1
     d06:	ae 0c       	add	r10, r14
     d08:	bf 1c       	adc	r11, r15
     d0a:	c0 1e       	adc	r12, r16
     d0c:	d1 1e       	adc	r13, r17
     d0e:	a2 1a       	sub	r10, r18
     d10:	b3 0a       	sbc	r11, r19
     d12:	c4 0a       	sbc	r12, r20
     d14:	d5 0a       	sbc	r13, r21
     d16:	c6 01       	movw	r24, r12
     d18:	b5 01       	movw	r22, r10
     d1a:	a4 01       	movw	r20, r8
     d1c:	93 01       	movw	r18, r6
     d1e:	0e 94 7a 1f 	call	0x3ef4	; 0x3ef4 <__udivmodsi4>
     d22:	7b 01       	movw	r14, r22
     d24:	8c 01       	movw	r16, r24
     d26:	c6 01       	movw	r24, r12
     d28:	b5 01       	movw	r22, r10
     d2a:	a4 01       	movw	r20, r8
     d2c:	93 01       	movw	r18, r6
     d2e:	0e 94 7a 1f 	call	0x3ef4	; 0x3ef4 <__udivmodsi4>
     d32:	c9 01       	movw	r24, r18
     d34:	da 01       	movw	r26, r20
     d36:	3c 01       	movw	r6, r24
     d38:	4d 01       	movw	r8, r26
     d3a:	c4 01       	movw	r24, r8
     d3c:	b3 01       	movw	r22, r6
     d3e:	65 96       	adiw	r28, 0x15	; 21
     d40:	2c ad       	ldd	r18, Y+60	; 0x3c
     d42:	3d ad       	ldd	r19, Y+61	; 0x3d
     d44:	4e ad       	ldd	r20, Y+62	; 0x3e
     d46:	5f ad       	ldd	r21, Y+63	; 0x3f
     d48:	65 97       	sbiw	r28, 0x15	; 21
     d4a:	0e 94 40 1f 	call	0x3e80	; 0x3e80 <__mulsi3>
     d4e:	9b 01       	movw	r18, r22
     d50:	ac 01       	movw	r20, r24
     d52:	87 01       	movw	r16, r14
     d54:	ff 24       	eor	r15, r15
     d56:	ee 24       	eor	r14, r14
     d58:	8d 8d       	ldd	r24, Y+29	; 0x1d
     d5a:	9e 8d       	ldd	r25, Y+30	; 0x1e
     d5c:	af 8d       	ldd	r26, Y+31	; 0x1f
     d5e:	b8 a1       	ldd	r27, Y+32	; 0x20
     d60:	a0 70       	andi	r26, 0x00	; 0
     d62:	b0 70       	andi	r27, 0x00	; 0
     d64:	57 01       	movw	r10, r14
     d66:	68 01       	movw	r12, r16
     d68:	a8 2a       	or	r10, r24
     d6a:	b9 2a       	or	r11, r25
     d6c:	ca 2a       	or	r12, r26
     d6e:	db 2a       	or	r13, r27
     d70:	a2 16       	cp	r10, r18
     d72:	b3 06       	cpc	r11, r19
     d74:	c4 06       	cpc	r12, r20
     d76:	d5 06       	cpc	r13, r21
     d78:	00 f5       	brcc	.+64     	; 0xdba <__stack+0x55b>
     d7a:	08 94       	sec
     d7c:	61 08       	sbc	r6, r1
     d7e:	71 08       	sbc	r7, r1
     d80:	81 08       	sbc	r8, r1
     d82:	91 08       	sbc	r9, r1
     d84:	6d a1       	ldd	r22, Y+37	; 0x25
     d86:	7e a1       	ldd	r23, Y+38	; 0x26
     d88:	8f a1       	ldd	r24, Y+39	; 0x27
     d8a:	98 a5       	ldd	r25, Y+40	; 0x28
     d8c:	a6 0e       	add	r10, r22
     d8e:	b7 1e       	adc	r11, r23
     d90:	c8 1e       	adc	r12, r24
     d92:	d9 1e       	adc	r13, r25
     d94:	a6 16       	cp	r10, r22
     d96:	b7 06       	cpc	r11, r23
     d98:	c8 06       	cpc	r12, r24
     d9a:	d9 06       	cpc	r13, r25
     d9c:	70 f0       	brcs	.+28     	; 0xdba <__stack+0x55b>
     d9e:	a2 16       	cp	r10, r18
     da0:	b3 06       	cpc	r11, r19
     da2:	c4 06       	cpc	r12, r20
     da4:	d5 06       	cpc	r13, r21
     da6:	48 f4       	brcc	.+18     	; 0xdba <__stack+0x55b>
     da8:	08 94       	sec
     daa:	61 08       	sbc	r6, r1
     dac:	71 08       	sbc	r7, r1
     dae:	81 08       	sbc	r8, r1
     db0:	91 08       	sbc	r9, r1
     db2:	a6 0e       	add	r10, r22
     db4:	b7 1e       	adc	r11, r23
     db6:	c8 1e       	adc	r12, r24
     db8:	d9 1e       	adc	r13, r25
     dba:	d6 01       	movw	r26, r12
     dbc:	c5 01       	movw	r24, r10
     dbe:	82 1b       	sub	r24, r18
     dc0:	93 0b       	sbc	r25, r19
     dc2:	a4 0b       	sbc	r26, r20
     dc4:	b5 0b       	sbc	r27, r21
     dc6:	89 8f       	std	Y+25, r24	; 0x19
     dc8:	9a 8f       	std	Y+26, r25	; 0x1a
     dca:	ab 8f       	std	Y+27, r26	; 0x1b
     dcc:	bc 8f       	std	Y+28, r27	; 0x1c
     dce:	d1 01       	movw	r26, r2
     dd0:	99 27       	eor	r25, r25
     dd2:	88 27       	eor	r24, r24
     dd4:	64 01       	movw	r12, r8
     dd6:	53 01       	movw	r10, r6
     dd8:	a8 2a       	or	r10, r24
     dda:	b9 2a       	or	r11, r25
     ddc:	ca 2a       	or	r12, r26
     dde:	db 2a       	or	r13, r27
     de0:	a9 aa       	std	Y+49, r10	; 0x31
     de2:	ba aa       	std	Y+50, r11	; 0x32
     de4:	cb aa       	std	Y+51, r12	; 0x33
     de6:	dc aa       	std	Y+52, r13	; 0x34
     de8:	86 01       	movw	r16, r12
     dea:	75 01       	movw	r14, r10
     dec:	2f ef       	ldi	r18, 0xFF	; 255
     dee:	3f ef       	ldi	r19, 0xFF	; 255
     df0:	40 e0       	ldi	r20, 0x00	; 0
     df2:	50 e0       	ldi	r21, 0x00	; 0
     df4:	e2 22       	and	r14, r18
     df6:	f3 22       	and	r15, r19
     df8:	04 23       	and	r16, r20
     dfa:	15 23       	and	r17, r21
     dfc:	a6 01       	movw	r20, r12
     dfe:	66 27       	eor	r22, r22
     e00:	77 27       	eor	r23, r23
     e02:	6d 96       	adiw	r28, 0x1d	; 29
     e04:	4c af       	std	Y+60, r20	; 0x3c
     e06:	5d af       	std	Y+61, r21	; 0x3d
     e08:	6e af       	std	Y+62, r22	; 0x3e
     e0a:	7f af       	std	Y+63, r23	; 0x3f
     e0c:	6d 97       	sbiw	r28, 0x1d	; 29
     e0e:	a9 a0       	ldd	r10, Y+33	; 0x21
     e10:	ba a0       	ldd	r11, Y+34	; 0x22
     e12:	cb a0       	ldd	r12, Y+35	; 0x23
     e14:	dc a0       	ldd	r13, Y+36	; 0x24
     e16:	6f ef       	ldi	r22, 0xFF	; 255
     e18:	7f ef       	ldi	r23, 0xFF	; 255
     e1a:	80 e0       	ldi	r24, 0x00	; 0
     e1c:	90 e0       	ldi	r25, 0x00	; 0
     e1e:	a6 22       	and	r10, r22
     e20:	b7 22       	and	r11, r23
     e22:	c8 22       	and	r12, r24
     e24:	d9 22       	and	r13, r25
     e26:	89 a1       	ldd	r24, Y+33	; 0x21
     e28:	9a a1       	ldd	r25, Y+34	; 0x22
     e2a:	ab a1       	ldd	r26, Y+35	; 0x23
     e2c:	bc a1       	ldd	r27, Y+36	; 0x24
     e2e:	1d 01       	movw	r2, r26
     e30:	44 24       	eor	r4, r4
     e32:	55 24       	eor	r5, r5
     e34:	c8 01       	movw	r24, r16
     e36:	b7 01       	movw	r22, r14
     e38:	a6 01       	movw	r20, r12
     e3a:	95 01       	movw	r18, r10
     e3c:	0e 94 40 1f 	call	0x3e80	; 0x3e80 <__mulsi3>
     e40:	69 96       	adiw	r28, 0x19	; 25
     e42:	6c af       	std	Y+60, r22	; 0x3c
     e44:	7d af       	std	Y+61, r23	; 0x3d
     e46:	8e af       	std	Y+62, r24	; 0x3e
     e48:	9f af       	std	Y+63, r25	; 0x3f
     e4a:	69 97       	sbiw	r28, 0x19	; 25
     e4c:	c8 01       	movw	r24, r16
     e4e:	b7 01       	movw	r22, r14
     e50:	a2 01       	movw	r20, r4
     e52:	91 01       	movw	r18, r2
     e54:	0e 94 40 1f 	call	0x3e80	; 0x3e80 <__mulsi3>
     e58:	3b 01       	movw	r6, r22
     e5a:	4c 01       	movw	r8, r24
     e5c:	6d 96       	adiw	r28, 0x1d	; 29
     e5e:	6c ad       	ldd	r22, Y+60	; 0x3c
     e60:	7d ad       	ldd	r23, Y+61	; 0x3d
     e62:	8e ad       	ldd	r24, Y+62	; 0x3e
     e64:	9f ad       	ldd	r25, Y+63	; 0x3f
     e66:	6d 97       	sbiw	r28, 0x1d	; 29
     e68:	a6 01       	movw	r20, r12
     e6a:	95 01       	movw	r18, r10
     e6c:	0e 94 40 1f 	call	0x3e80	; 0x3e80 <__mulsi3>
     e70:	7b 01       	movw	r14, r22
     e72:	8c 01       	movw	r16, r24
     e74:	6d 96       	adiw	r28, 0x1d	; 29
     e76:	6c ad       	ldd	r22, Y+60	; 0x3c
     e78:	7d ad       	ldd	r23, Y+61	; 0x3d
     e7a:	8e ad       	ldd	r24, Y+62	; 0x3e
     e7c:	9f ad       	ldd	r25, Y+63	; 0x3f
     e7e:	6d 97       	sbiw	r28, 0x1d	; 29
     e80:	a2 01       	movw	r20, r4
     e82:	91 01       	movw	r18, r2
     e84:	0e 94 40 1f 	call	0x3e80	; 0x3e80 <__mulsi3>
     e88:	5b 01       	movw	r10, r22
     e8a:	6c 01       	movw	r12, r24
     e8c:	a8 01       	movw	r20, r16
     e8e:	97 01       	movw	r18, r14
     e90:	26 0d       	add	r18, r6
     e92:	37 1d       	adc	r19, r7
     e94:	48 1d       	adc	r20, r8
     e96:	59 1d       	adc	r21, r9
     e98:	69 96       	adiw	r28, 0x19	; 25
     e9a:	6c ac       	ldd	r6, Y+60	; 0x3c
     e9c:	7d ac       	ldd	r7, Y+61	; 0x3d
     e9e:	8e ac       	ldd	r8, Y+62	; 0x3e
     ea0:	9f ac       	ldd	r9, Y+63	; 0x3f
     ea2:	69 97       	sbiw	r28, 0x19	; 25
     ea4:	c4 01       	movw	r24, r8
     ea6:	aa 27       	eor	r26, r26
     ea8:	bb 27       	eor	r27, r27
     eaa:	28 0f       	add	r18, r24
     eac:	39 1f       	adc	r19, r25
     eae:	4a 1f       	adc	r20, r26
     eb0:	5b 1f       	adc	r21, r27
     eb2:	2e 15       	cp	r18, r14
     eb4:	3f 05       	cpc	r19, r15
     eb6:	40 07       	cpc	r20, r16
     eb8:	51 07       	cpc	r21, r17
     eba:	48 f4       	brcc	.+18     	; 0xece <__stack+0x66f>
     ebc:	e1 2c       	mov	r14, r1
     ebe:	f1 2c       	mov	r15, r1
     ec0:	61 e0       	ldi	r22, 0x01	; 1
     ec2:	06 2f       	mov	r16, r22
     ec4:	11 2d       	mov	r17, r1
     ec6:	ae 0c       	add	r10, r14
     ec8:	bf 1c       	adc	r11, r15
     eca:	c0 1e       	adc	r12, r16
     ecc:	d1 1e       	adc	r13, r17
     ece:	ca 01       	movw	r24, r20
     ed0:	aa 27       	eor	r26, r26
     ed2:	bb 27       	eor	r27, r27
     ed4:	bc 01       	movw	r22, r24
     ed6:	cd 01       	movw	r24, r26
     ed8:	6a 0d       	add	r22, r10
     eda:	7b 1d       	adc	r23, r11
     edc:	8c 1d       	adc	r24, r12
     ede:	9d 1d       	adc	r25, r13
     ee0:	69 8c       	ldd	r6, Y+25	; 0x19
     ee2:	7a 8c       	ldd	r7, Y+26	; 0x1a
     ee4:	8b 8c       	ldd	r8, Y+27	; 0x1b
     ee6:	9c 8c       	ldd	r9, Y+28	; 0x1c
     ee8:	66 16       	cp	r6, r22
     eea:	77 06       	cpc	r7, r23
     eec:	88 06       	cpc	r8, r24
     eee:	99 06       	cpc	r9, r25
     ef0:	40 f1       	brcs	.+80     	; 0xf42 <__stack+0x6e3>
     ef2:	66 15       	cp	r22, r6
     ef4:	77 05       	cpc	r23, r7
     ef6:	88 05       	cpc	r24, r8
     ef8:	99 05       	cpc	r25, r9
     efa:	09 f0       	breq	.+2      	; 0xefe <__stack+0x69f>
     efc:	43 c0       	rjmp	.+134    	; 0xf84 <__stack+0x725>
     efe:	d9 01       	movw	r26, r18
     f00:	99 27       	eor	r25, r25
     f02:	88 27       	eor	r24, r24
     f04:	69 96       	adiw	r28, 0x19	; 25
     f06:	2c ad       	ldd	r18, Y+60	; 0x3c
     f08:	3d ad       	ldd	r19, Y+61	; 0x3d
     f0a:	4e ad       	ldd	r20, Y+62	; 0x3e
     f0c:	5f ad       	ldd	r21, Y+63	; 0x3f
     f0e:	69 97       	sbiw	r28, 0x19	; 25
     f10:	40 70       	andi	r20, 0x00	; 0
     f12:	50 70       	andi	r21, 0x00	; 0
     f14:	82 0f       	add	r24, r18
     f16:	93 1f       	adc	r25, r19
     f18:	a4 1f       	adc	r26, r20
     f1a:	b5 1f       	adc	r27, r21
     f1c:	2d a5       	ldd	r18, Y+45	; 0x2d
     f1e:	3e a5       	ldd	r19, Y+46	; 0x2e
     f20:	4f a5       	ldd	r20, Y+47	; 0x2f
     f22:	58 a9       	ldd	r21, Y+48	; 0x30
     f24:	6e 96       	adiw	r28, 0x1e	; 30
     f26:	0f ac       	ldd	r0, Y+63	; 0x3f
     f28:	6e 97       	sbiw	r28, 0x1e	; 30
     f2a:	04 c0       	rjmp	.+8      	; 0xf34 <__stack+0x6d5>
     f2c:	22 0f       	add	r18, r18
     f2e:	33 1f       	adc	r19, r19
     f30:	44 1f       	adc	r20, r20
     f32:	55 1f       	adc	r21, r21
     f34:	0a 94       	dec	r0
     f36:	d2 f7       	brpl	.-12     	; 0xf2c <__stack+0x6cd>
     f38:	28 17       	cp	r18, r24
     f3a:	39 07       	cpc	r19, r25
     f3c:	4a 07       	cpc	r20, r26
     f3e:	5b 07       	cpc	r21, r27
     f40:	08 f5       	brcc	.+66     	; 0xf84 <__stack+0x725>
     f42:	09 a9       	ldd	r16, Y+49	; 0x31
     f44:	1a a9       	ldd	r17, Y+50	; 0x32
     f46:	2b a9       	ldd	r18, Y+51	; 0x33
     f48:	3c a9       	ldd	r19, Y+52	; 0x34
     f4a:	01 50       	subi	r16, 0x01	; 1
     f4c:	10 40       	sbci	r17, 0x00	; 0
     f4e:	20 40       	sbci	r18, 0x00	; 0
     f50:	30 40       	sbci	r19, 0x00	; 0
     f52:	09 ab       	std	Y+49, r16	; 0x31
     f54:	1a ab       	std	Y+50, r17	; 0x32
     f56:	2b ab       	std	Y+51, r18	; 0x33
     f58:	3c ab       	std	Y+52, r19	; 0x34
     f5a:	14 c0       	rjmp	.+40     	; 0xf84 <__stack+0x725>
     f5c:	66 24       	eor	r6, r6
     f5e:	77 24       	eor	r7, r7
     f60:	43 01       	movw	r8, r6
     f62:	21 e0       	ldi	r18, 0x01	; 1
     f64:	30 e0       	ldi	r19, 0x00	; 0
     f66:	40 e0       	ldi	r20, 0x00	; 0
     f68:	50 e0       	ldi	r21, 0x00	; 0
     f6a:	29 ab       	std	Y+49, r18	; 0x31
     f6c:	3a ab       	std	Y+50, r19	; 0x32
     f6e:	4b ab       	std	Y+51, r20	; 0x33
     f70:	5c ab       	std	Y+52, r21	; 0x34
     f72:	0b c0       	rjmp	.+22     	; 0xf8a <__stack+0x72b>
     f74:	66 24       	eor	r6, r6
     f76:	77 24       	eor	r7, r7
     f78:	43 01       	movw	r8, r6
     f7a:	19 aa       	std	Y+49, r1	; 0x31
     f7c:	1a aa       	std	Y+50, r1	; 0x32
     f7e:	1b aa       	std	Y+51, r1	; 0x33
     f80:	1c aa       	std	Y+52, r1	; 0x34
     f82:	03 c0       	rjmp	.+6      	; 0xf8a <__stack+0x72b>
     f84:	66 24       	eor	r6, r6
     f86:	77 24       	eor	r7, r7
     f88:	43 01       	movw	r8, r6
     f8a:	fe 01       	movw	r30, r28
     f8c:	71 96       	adiw	r30, 0x11	; 17
     f8e:	88 e0       	ldi	r24, 0x08	; 8
     f90:	df 01       	movw	r26, r30
     f92:	1d 92       	st	X+, r1
     f94:	8a 95       	dec	r24
     f96:	e9 f7       	brne	.-6      	; 0xf92 <__stack+0x733>
     f98:	a9 a8       	ldd	r10, Y+49	; 0x31
     f9a:	ba a8       	ldd	r11, Y+50	; 0x32
     f9c:	cb a8       	ldd	r12, Y+51	; 0x33
     f9e:	dc a8       	ldd	r13, Y+52	; 0x34
     fa0:	a9 8a       	std	Y+17, r10	; 0x11
     fa2:	ba 8a       	std	Y+18, r11	; 0x12
     fa4:	cb 8a       	std	Y+19, r12	; 0x13
     fa6:	dc 8a       	std	Y+20, r13	; 0x14
     fa8:	6d 8a       	std	Y+21, r6	; 0x15
     faa:	7e 8a       	std	Y+22, r7	; 0x16
     fac:	8f 8a       	std	Y+23, r8	; 0x17
     fae:	98 8e       	std	Y+24, r9	; 0x18
     fb0:	29 a9       	ldd	r18, Y+49	; 0x31
     fb2:	3a 89       	ldd	r19, Y+18	; 0x12
     fb4:	4b 89       	ldd	r20, Y+19	; 0x13
     fb6:	5c 89       	ldd	r21, Y+20	; 0x14
     fb8:	66 2d       	mov	r22, r6
     fba:	7e 89       	ldd	r23, Y+22	; 0x16
     fbc:	8f 89       	ldd	r24, Y+23	; 0x17
     fbe:	98 8d       	ldd	r25, Y+24	; 0x18
     fc0:	c2 5a       	subi	r28, 0xA2	; 162
     fc2:	df 4f       	sbci	r29, 0xFF	; 255
     fc4:	e2 e1       	ldi	r30, 0x12	; 18
     fc6:	0c 94 b8 1f 	jmp	0x3f70	; 0x3f70 <__epilogue_restores__>

00000fca <__umoddi3>:
     fca:	ab e5       	ldi	r26, 0x5B	; 91
     fcc:	b0 e0       	ldi	r27, 0x00	; 0
     fce:	eb ee       	ldi	r30, 0xEB	; 235
     fd0:	f7 e0       	ldi	r31, 0x07	; 7
     fd2:	0c 94 9c 1f 	jmp	0x3f38	; 0x3f38 <__prologue_saves__>
     fd6:	a8 e0       	ldi	r26, 0x08	; 8
     fd8:	4e 01       	movw	r8, r28
     fda:	08 94       	sec
     fdc:	81 1c       	adc	r8, r1
     fde:	91 1c       	adc	r9, r1
     fe0:	f4 01       	movw	r30, r8
     fe2:	6a 2e       	mov	r6, r26
     fe4:	11 92       	st	Z+, r1
     fe6:	6a 94       	dec	r6
     fe8:	e9 f7       	brne	.-6      	; 0xfe4 <__umoddi3+0x1a>
     fea:	29 83       	std	Y+1, r18	; 0x01
     fec:	3a 83       	std	Y+2, r19	; 0x02
     fee:	4b 83       	std	Y+3, r20	; 0x03
     ff0:	5c 83       	std	Y+4, r21	; 0x04
     ff2:	6d 83       	std	Y+5, r22	; 0x05
     ff4:	7e 83       	std	Y+6, r23	; 0x06
     ff6:	8f 83       	std	Y+7, r24	; 0x07
     ff8:	98 87       	std	Y+8, r25	; 0x08
     ffa:	ce 01       	movw	r24, r28
     ffc:	09 96       	adiw	r24, 0x09	; 9
     ffe:	fc 01       	movw	r30, r24
    1000:	11 92       	st	Z+, r1
    1002:	aa 95       	dec	r26
    1004:	e9 f7       	brne	.-6      	; 0x1000 <__umoddi3+0x36>
    1006:	a9 86       	std	Y+9, r10	; 0x09
    1008:	ba 86       	std	Y+10, r11	; 0x0a
    100a:	cb 86       	std	Y+11, r12	; 0x0b
    100c:	dc 86       	std	Y+12, r13	; 0x0c
    100e:	ed 86       	std	Y+13, r14	; 0x0d
    1010:	fe 86       	std	Y+14, r15	; 0x0e
    1012:	0f 87       	std	Y+15, r16	; 0x0f
    1014:	18 8b       	std	Y+16, r17	; 0x10
    1016:	29 84       	ldd	r2, Y+9	; 0x09
    1018:	3a 84       	ldd	r3, Y+10	; 0x0a
    101a:	4b 84       	ldd	r4, Y+11	; 0x0b
    101c:	5c 84       	ldd	r5, Y+12	; 0x0c
    101e:	ad 84       	ldd	r10, Y+13	; 0x0d
    1020:	be 84       	ldd	r11, Y+14	; 0x0e
    1022:	cf 84       	ldd	r12, Y+15	; 0x0f
    1024:	d8 88       	ldd	r13, Y+16	; 0x10
    1026:	29 81       	ldd	r18, Y+1	; 0x01
    1028:	3a 81       	ldd	r19, Y+2	; 0x02
    102a:	4b 81       	ldd	r20, Y+3	; 0x03
    102c:	5c 81       	ldd	r21, Y+4	; 0x04
    102e:	69 96       	adiw	r28, 0x19	; 25
    1030:	2f af       	std	Y+63, r18	; 0x3f
    1032:	69 97       	sbiw	r28, 0x19	; 25
    1034:	6a 96       	adiw	r28, 0x1a	; 26
    1036:	3f af       	std	Y+63, r19	; 0x3f
    1038:	6a 97       	sbiw	r28, 0x1a	; 26
    103a:	6b 96       	adiw	r28, 0x1b	; 27
    103c:	4f af       	std	Y+63, r20	; 0x3f
    103e:	6b 97       	sbiw	r28, 0x1b	; 27
    1040:	6c 96       	adiw	r28, 0x1c	; 28
    1042:	5f af       	std	Y+63, r21	; 0x3f
    1044:	6c 97       	sbiw	r28, 0x1c	; 28
    1046:	6c 96       	adiw	r28, 0x1c	; 28
    1048:	6c ac       	ldd	r6, Y+60	; 0x3c
    104a:	7d ac       	ldd	r7, Y+61	; 0x3d
    104c:	8e ac       	ldd	r8, Y+62	; 0x3e
    104e:	9f ac       	ldd	r9, Y+63	; 0x3f
    1050:	6c 97       	sbiw	r28, 0x1c	; 28
    1052:	69 aa       	std	Y+49, r6	; 0x31
    1054:	7a aa       	std	Y+50, r7	; 0x32
    1056:	8b aa       	std	Y+51, r8	; 0x33
    1058:	9c aa       	std	Y+52, r9	; 0x34
    105a:	6d 81       	ldd	r22, Y+5	; 0x05
    105c:	7e 81       	ldd	r23, Y+6	; 0x06
    105e:	8f 81       	ldd	r24, Y+7	; 0x07
    1060:	98 85       	ldd	r25, Y+8	; 0x08
    1062:	3b 01       	movw	r6, r22
    1064:	4c 01       	movw	r8, r24
    1066:	6d aa       	std	Y+53, r6	; 0x35
    1068:	7e aa       	std	Y+54, r7	; 0x36
    106a:	8f aa       	std	Y+55, r8	; 0x37
    106c:	98 ae       	std	Y+56, r9	; 0x38
    106e:	a1 14       	cp	r10, r1
    1070:	b1 04       	cpc	r11, r1
    1072:	c1 04       	cpc	r12, r1
    1074:	d1 04       	cpc	r13, r1
    1076:	09 f0       	breq	.+2      	; 0x107a <__umoddi3+0xb0>
    1078:	04 c3       	rjmp	.+1544   	; 0x1682 <__umoddi3+0x6b8>
    107a:	62 14       	cp	r6, r2
    107c:	73 04       	cpc	r7, r3
    107e:	84 04       	cpc	r8, r4
    1080:	95 04       	cpc	r9, r5
    1082:	08 f0       	brcs	.+2      	; 0x1086 <__umoddi3+0xbc>
    1084:	00 c1       	rjmp	.+512    	; 0x1286 <__umoddi3+0x2bc>
    1086:	00 e0       	ldi	r16, 0x00	; 0
    1088:	20 16       	cp	r2, r16
    108a:	00 e0       	ldi	r16, 0x00	; 0
    108c:	30 06       	cpc	r3, r16
    108e:	01 e0       	ldi	r16, 0x01	; 1
    1090:	40 06       	cpc	r4, r16
    1092:	00 e0       	ldi	r16, 0x00	; 0
    1094:	50 06       	cpc	r5, r16
    1096:	88 f4       	brcc	.+34     	; 0x10ba <__umoddi3+0xf0>
    1098:	1f ef       	ldi	r17, 0xFF	; 255
    109a:	21 16       	cp	r2, r17
    109c:	31 04       	cpc	r3, r1
    109e:	41 04       	cpc	r4, r1
    10a0:	51 04       	cpc	r5, r1
    10a2:	39 f0       	breq	.+14     	; 0x10b2 <__umoddi3+0xe8>
    10a4:	30 f0       	brcs	.+12     	; 0x10b2 <__umoddi3+0xe8>
    10a6:	88 e0       	ldi	r24, 0x08	; 8
    10a8:	e8 2e       	mov	r14, r24
    10aa:	f1 2c       	mov	r15, r1
    10ac:	01 2d       	mov	r16, r1
    10ae:	11 2d       	mov	r17, r1
    10b0:	18 c0       	rjmp	.+48     	; 0x10e2 <__umoddi3+0x118>
    10b2:	ee 24       	eor	r14, r14
    10b4:	ff 24       	eor	r15, r15
    10b6:	87 01       	movw	r16, r14
    10b8:	14 c0       	rjmp	.+40     	; 0x10e2 <__umoddi3+0x118>
    10ba:	40 e0       	ldi	r20, 0x00	; 0
    10bc:	24 16       	cp	r2, r20
    10be:	40 e0       	ldi	r20, 0x00	; 0
    10c0:	34 06       	cpc	r3, r20
    10c2:	40 e0       	ldi	r20, 0x00	; 0
    10c4:	44 06       	cpc	r4, r20
    10c6:	41 e0       	ldi	r20, 0x01	; 1
    10c8:	54 06       	cpc	r5, r20
    10ca:	30 f0       	brcs	.+12     	; 0x10d8 <__umoddi3+0x10e>
    10cc:	b8 e1       	ldi	r27, 0x18	; 24
    10ce:	eb 2e       	mov	r14, r27
    10d0:	f1 2c       	mov	r15, r1
    10d2:	01 2d       	mov	r16, r1
    10d4:	11 2d       	mov	r17, r1
    10d6:	05 c0       	rjmp	.+10     	; 0x10e2 <__umoddi3+0x118>
    10d8:	a0 e1       	ldi	r26, 0x10	; 16
    10da:	ea 2e       	mov	r14, r26
    10dc:	f1 2c       	mov	r15, r1
    10de:	01 2d       	mov	r16, r1
    10e0:	11 2d       	mov	r17, r1
    10e2:	d2 01       	movw	r26, r4
    10e4:	c1 01       	movw	r24, r2
    10e6:	0e 2c       	mov	r0, r14
    10e8:	04 c0       	rjmp	.+8      	; 0x10f2 <__umoddi3+0x128>
    10ea:	b6 95       	lsr	r27
    10ec:	a7 95       	ror	r26
    10ee:	97 95       	ror	r25
    10f0:	87 95       	ror	r24
    10f2:	0a 94       	dec	r0
    10f4:	d2 f7       	brpl	.-12     	; 0x10ea <__umoddi3+0x120>
    10f6:	88 59       	subi	r24, 0x98	; 152
    10f8:	9f 4f       	sbci	r25, 0xFF	; 255
    10fa:	dc 01       	movw	r26, r24
    10fc:	2c 91       	ld	r18, X
    10fe:	80 e2       	ldi	r24, 0x20	; 32
    1100:	90 e0       	ldi	r25, 0x00	; 0
    1102:	a0 e0       	ldi	r26, 0x00	; 0
    1104:	b0 e0       	ldi	r27, 0x00	; 0
    1106:	8e 19       	sub	r24, r14
    1108:	9f 09       	sbc	r25, r15
    110a:	a0 0b       	sbc	r26, r16
    110c:	b1 0b       	sbc	r27, r17
    110e:	5c 01       	movw	r10, r24
    1110:	6d 01       	movw	r12, r26
    1112:	a2 1a       	sub	r10, r18
    1114:	b1 08       	sbc	r11, r1
    1116:	c1 08       	sbc	r12, r1
    1118:	d1 08       	sbc	r13, r1
    111a:	a9 ae       	std	Y+57, r10	; 0x39
    111c:	ba ae       	std	Y+58, r11	; 0x3a
    111e:	cb ae       	std	Y+59, r12	; 0x3b
    1120:	dc ae       	std	Y+60, r13	; 0x3c
    1122:	a1 14       	cp	r10, r1
    1124:	b1 04       	cpc	r11, r1
    1126:	c1 04       	cpc	r12, r1
    1128:	d1 04       	cpc	r13, r1
    112a:	09 f4       	brne	.+2      	; 0x112e <__umoddi3+0x164>
    112c:	3f c0       	rjmp	.+126    	; 0x11ac <__umoddi3+0x1e2>
    112e:	69 ad       	ldd	r22, Y+57	; 0x39
    1130:	06 2e       	mov	r0, r22
    1132:	04 c0       	rjmp	.+8      	; 0x113c <__umoddi3+0x172>
    1134:	22 0c       	add	r2, r2
    1136:	33 1c       	adc	r3, r3
    1138:	44 1c       	adc	r4, r4
    113a:	55 1c       	adc	r5, r5
    113c:	0a 94       	dec	r0
    113e:	d2 f7       	brpl	.-12     	; 0x1134 <__umoddi3+0x16a>
    1140:	a4 01       	movw	r20, r8
    1142:	93 01       	movw	r18, r6
    1144:	06 2e       	mov	r0, r22
    1146:	04 c0       	rjmp	.+8      	; 0x1150 <__umoddi3+0x186>
    1148:	22 0f       	add	r18, r18
    114a:	33 1f       	adc	r19, r19
    114c:	44 1f       	adc	r20, r20
    114e:	55 1f       	adc	r21, r21
    1150:	0a 94       	dec	r0
    1152:	d2 f7       	brpl	.-12     	; 0x1148 <__umoddi3+0x17e>
    1154:	80 e2       	ldi	r24, 0x20	; 32
    1156:	90 e0       	ldi	r25, 0x00	; 0
    1158:	8a 19       	sub	r24, r10
    115a:	9b 09       	sbc	r25, r11
    115c:	6c 96       	adiw	r28, 0x1c	; 28
    115e:	cc ac       	ldd	r12, Y+60	; 0x3c
    1160:	dd ac       	ldd	r13, Y+61	; 0x3d
    1162:	ee ac       	ldd	r14, Y+62	; 0x3e
    1164:	ff ac       	ldd	r15, Y+63	; 0x3f
    1166:	6c 97       	sbiw	r28, 0x1c	; 28
    1168:	04 c0       	rjmp	.+8      	; 0x1172 <__umoddi3+0x1a8>
    116a:	f6 94       	lsr	r15
    116c:	e7 94       	ror	r14
    116e:	d7 94       	ror	r13
    1170:	c7 94       	ror	r12
    1172:	8a 95       	dec	r24
    1174:	d2 f7       	brpl	.-12     	; 0x116a <__umoddi3+0x1a0>
    1176:	87 01       	movw	r16, r14
    1178:	76 01       	movw	r14, r12
    117a:	e2 2a       	or	r14, r18
    117c:	f3 2a       	or	r15, r19
    117e:	04 2b       	or	r16, r20
    1180:	15 2b       	or	r17, r21
    1182:	ed aa       	std	Y+53, r14	; 0x35
    1184:	fe aa       	std	Y+54, r15	; 0x36
    1186:	0f ab       	std	Y+55, r16	; 0x37
    1188:	18 af       	std	Y+56, r17	; 0x38
    118a:	6c 96       	adiw	r28, 0x1c	; 28
    118c:	8c ad       	ldd	r24, Y+60	; 0x3c
    118e:	9d ad       	ldd	r25, Y+61	; 0x3d
    1190:	ae ad       	ldd	r26, Y+62	; 0x3e
    1192:	bf ad       	ldd	r27, Y+63	; 0x3f
    1194:	6c 97       	sbiw	r28, 0x1c	; 28
    1196:	04 c0       	rjmp	.+8      	; 0x11a0 <__umoddi3+0x1d6>
    1198:	88 0f       	add	r24, r24
    119a:	99 1f       	adc	r25, r25
    119c:	aa 1f       	adc	r26, r26
    119e:	bb 1f       	adc	r27, r27
    11a0:	6a 95       	dec	r22
    11a2:	d2 f7       	brpl	.-12     	; 0x1198 <__umoddi3+0x1ce>
    11a4:	89 ab       	std	Y+49, r24	; 0x31
    11a6:	9a ab       	std	Y+50, r25	; 0x32
    11a8:	ab ab       	std	Y+51, r26	; 0x33
    11aa:	bc ab       	std	Y+52, r27	; 0x34
    11ac:	32 01       	movw	r6, r4
    11ae:	88 24       	eor	r8, r8
    11b0:	99 24       	eor	r9, r9
    11b2:	b2 01       	movw	r22, r4
    11b4:	a1 01       	movw	r20, r2
    11b6:	60 70       	andi	r22, 0x00	; 0
    11b8:	70 70       	andi	r23, 0x00	; 0
    11ba:	21 96       	adiw	r28, 0x01	; 1
    11bc:	4c af       	std	Y+60, r20	; 0x3c
    11be:	5d af       	std	Y+61, r21	; 0x3d
    11c0:	6e af       	std	Y+62, r22	; 0x3e
    11c2:	7f af       	std	Y+63, r23	; 0x3f
    11c4:	21 97       	sbiw	r28, 0x01	; 1
    11c6:	6d a9       	ldd	r22, Y+53	; 0x35
    11c8:	7e a9       	ldd	r23, Y+54	; 0x36
    11ca:	8f a9       	ldd	r24, Y+55	; 0x37
    11cc:	98 ad       	ldd	r25, Y+56	; 0x38
    11ce:	a4 01       	movw	r20, r8
    11d0:	93 01       	movw	r18, r6
    11d2:	0e 94 7a 1f 	call	0x3ef4	; 0x3ef4 <__udivmodsi4>
    11d6:	7b 01       	movw	r14, r22
    11d8:	8c 01       	movw	r16, r24
    11da:	6d a9       	ldd	r22, Y+53	; 0x35
    11dc:	7e a9       	ldd	r23, Y+54	; 0x36
    11de:	8f a9       	ldd	r24, Y+55	; 0x37
    11e0:	98 ad       	ldd	r25, Y+56	; 0x38
    11e2:	a4 01       	movw	r20, r8
    11e4:	93 01       	movw	r18, r6
    11e6:	0e 94 7a 1f 	call	0x3ef4	; 0x3ef4 <__udivmodsi4>
    11ea:	ca 01       	movw	r24, r20
    11ec:	b9 01       	movw	r22, r18
    11ee:	21 96       	adiw	r28, 0x01	; 1
    11f0:	2c ad       	ldd	r18, Y+60	; 0x3c
    11f2:	3d ad       	ldd	r19, Y+61	; 0x3d
    11f4:	4e ad       	ldd	r20, Y+62	; 0x3e
    11f6:	5f ad       	ldd	r21, Y+63	; 0x3f
    11f8:	21 97       	sbiw	r28, 0x01	; 1
    11fa:	0e 94 40 1f 	call	0x3e80	; 0x3e80 <__mulsi3>
    11fe:	9b 01       	movw	r18, r22
    1200:	ac 01       	movw	r20, r24
    1202:	87 01       	movw	r16, r14
    1204:	ff 24       	eor	r15, r15
    1206:	ee 24       	eor	r14, r14
    1208:	a9 a8       	ldd	r10, Y+49	; 0x31
    120a:	ba a8       	ldd	r11, Y+50	; 0x32
    120c:	cb a8       	ldd	r12, Y+51	; 0x33
    120e:	dc a8       	ldd	r13, Y+52	; 0x34
    1210:	c6 01       	movw	r24, r12
    1212:	aa 27       	eor	r26, r26
    1214:	bb 27       	eor	r27, r27
    1216:	57 01       	movw	r10, r14
    1218:	68 01       	movw	r12, r16
    121a:	a8 2a       	or	r10, r24
    121c:	b9 2a       	or	r11, r25
    121e:	ca 2a       	or	r12, r26
    1220:	db 2a       	or	r13, r27
    1222:	a2 16       	cp	r10, r18
    1224:	b3 06       	cpc	r11, r19
    1226:	c4 06       	cpc	r12, r20
    1228:	d5 06       	cpc	r13, r21
    122a:	90 f4       	brcc	.+36     	; 0x1250 <__umoddi3+0x286>
    122c:	a2 0c       	add	r10, r2
    122e:	b3 1c       	adc	r11, r3
    1230:	c4 1c       	adc	r12, r4
    1232:	d5 1c       	adc	r13, r5
    1234:	a2 14       	cp	r10, r2
    1236:	b3 04       	cpc	r11, r3
    1238:	c4 04       	cpc	r12, r4
    123a:	d5 04       	cpc	r13, r5
    123c:	48 f0       	brcs	.+18     	; 0x1250 <__umoddi3+0x286>
    123e:	a2 16       	cp	r10, r18
    1240:	b3 06       	cpc	r11, r19
    1242:	c4 06       	cpc	r12, r20
    1244:	d5 06       	cpc	r13, r21
    1246:	20 f4       	brcc	.+8      	; 0x1250 <__umoddi3+0x286>
    1248:	a2 0c       	add	r10, r2
    124a:	b3 1c       	adc	r11, r3
    124c:	c4 1c       	adc	r12, r4
    124e:	d5 1c       	adc	r13, r5
    1250:	a2 1a       	sub	r10, r18
    1252:	b3 0a       	sbc	r11, r19
    1254:	c4 0a       	sbc	r12, r20
    1256:	d5 0a       	sbc	r13, r21
    1258:	c6 01       	movw	r24, r12
    125a:	b5 01       	movw	r22, r10
    125c:	a4 01       	movw	r20, r8
    125e:	93 01       	movw	r18, r6
    1260:	0e 94 7a 1f 	call	0x3ef4	; 0x3ef4 <__udivmodsi4>
    1264:	7b 01       	movw	r14, r22
    1266:	8c 01       	movw	r16, r24
    1268:	c6 01       	movw	r24, r12
    126a:	b5 01       	movw	r22, r10
    126c:	a4 01       	movw	r20, r8
    126e:	93 01       	movw	r18, r6
    1270:	0e 94 7a 1f 	call	0x3ef4	; 0x3ef4 <__udivmodsi4>
    1274:	ca 01       	movw	r24, r20
    1276:	b9 01       	movw	r22, r18
    1278:	21 96       	adiw	r28, 0x01	; 1
    127a:	2c ad       	ldd	r18, Y+60	; 0x3c
    127c:	3d ad       	ldd	r19, Y+61	; 0x3d
    127e:	4e ad       	ldd	r20, Y+62	; 0x3e
    1280:	5f ad       	ldd	r21, Y+63	; 0x3f
    1282:	21 97       	sbiw	r28, 0x01	; 1
    1284:	ba c1       	rjmp	.+884    	; 0x15fa <__umoddi3+0x630>
    1286:	21 14       	cp	r2, r1
    1288:	31 04       	cpc	r3, r1
    128a:	41 04       	cpc	r4, r1
    128c:	51 04       	cpc	r5, r1
    128e:	71 f4       	brne	.+28     	; 0x12ac <__umoddi3+0x2e2>
    1290:	61 e0       	ldi	r22, 0x01	; 1
    1292:	70 e0       	ldi	r23, 0x00	; 0
    1294:	80 e0       	ldi	r24, 0x00	; 0
    1296:	90 e0       	ldi	r25, 0x00	; 0
    1298:	20 e0       	ldi	r18, 0x00	; 0
    129a:	30 e0       	ldi	r19, 0x00	; 0
    129c:	40 e0       	ldi	r20, 0x00	; 0
    129e:	50 e0       	ldi	r21, 0x00	; 0
    12a0:	0e 94 7a 1f 	call	0x3ef4	; 0x3ef4 <__udivmodsi4>
    12a4:	c9 01       	movw	r24, r18
    12a6:	da 01       	movw	r26, r20
    12a8:	1c 01       	movw	r2, r24
    12aa:	2d 01       	movw	r4, r26
    12ac:	00 e0       	ldi	r16, 0x00	; 0
    12ae:	20 16       	cp	r2, r16
    12b0:	00 e0       	ldi	r16, 0x00	; 0
    12b2:	30 06       	cpc	r3, r16
    12b4:	01 e0       	ldi	r16, 0x01	; 1
    12b6:	40 06       	cpc	r4, r16
    12b8:	00 e0       	ldi	r16, 0x00	; 0
    12ba:	50 06       	cpc	r5, r16
    12bc:	88 f4       	brcc	.+34     	; 0x12e0 <__umoddi3+0x316>
    12be:	1f ef       	ldi	r17, 0xFF	; 255
    12c0:	21 16       	cp	r2, r17
    12c2:	31 04       	cpc	r3, r1
    12c4:	41 04       	cpc	r4, r1
    12c6:	51 04       	cpc	r5, r1
    12c8:	39 f0       	breq	.+14     	; 0x12d8 <__umoddi3+0x30e>
    12ca:	30 f0       	brcs	.+12     	; 0x12d8 <__umoddi3+0x30e>
    12cc:	68 e0       	ldi	r22, 0x08	; 8
    12ce:	e6 2e       	mov	r14, r22
    12d0:	f1 2c       	mov	r15, r1
    12d2:	01 2d       	mov	r16, r1
    12d4:	11 2d       	mov	r17, r1
    12d6:	18 c0       	rjmp	.+48     	; 0x1308 <__umoddi3+0x33e>
    12d8:	ee 24       	eor	r14, r14
    12da:	ff 24       	eor	r15, r15
    12dc:	87 01       	movw	r16, r14
    12de:	14 c0       	rjmp	.+40     	; 0x1308 <__umoddi3+0x33e>
    12e0:	40 e0       	ldi	r20, 0x00	; 0
    12e2:	24 16       	cp	r2, r20
    12e4:	40 e0       	ldi	r20, 0x00	; 0
    12e6:	34 06       	cpc	r3, r20
    12e8:	40 e0       	ldi	r20, 0x00	; 0
    12ea:	44 06       	cpc	r4, r20
    12ec:	41 e0       	ldi	r20, 0x01	; 1
    12ee:	54 06       	cpc	r5, r20
    12f0:	30 f0       	brcs	.+12     	; 0x12fe <__umoddi3+0x334>
    12f2:	58 e1       	ldi	r21, 0x18	; 24
    12f4:	e5 2e       	mov	r14, r21
    12f6:	f1 2c       	mov	r15, r1
    12f8:	01 2d       	mov	r16, r1
    12fa:	11 2d       	mov	r17, r1
    12fc:	05 c0       	rjmp	.+10     	; 0x1308 <__umoddi3+0x33e>
    12fe:	40 e1       	ldi	r20, 0x10	; 16
    1300:	e4 2e       	mov	r14, r20
    1302:	f1 2c       	mov	r15, r1
    1304:	01 2d       	mov	r16, r1
    1306:	11 2d       	mov	r17, r1
    1308:	d2 01       	movw	r26, r4
    130a:	c1 01       	movw	r24, r2
    130c:	0e 2c       	mov	r0, r14
    130e:	04 c0       	rjmp	.+8      	; 0x1318 <__umoddi3+0x34e>
    1310:	b6 95       	lsr	r27
    1312:	a7 95       	ror	r26
    1314:	97 95       	ror	r25
    1316:	87 95       	ror	r24
    1318:	0a 94       	dec	r0
    131a:	d2 f7       	brpl	.-12     	; 0x1310 <__umoddi3+0x346>
    131c:	88 59       	subi	r24, 0x98	; 152
    131e:	9f 4f       	sbci	r25, 0xFF	; 255
    1320:	dc 01       	movw	r26, r24
    1322:	2c 91       	ld	r18, X
    1324:	30 e2       	ldi	r19, 0x20	; 32
    1326:	a3 2e       	mov	r10, r19
    1328:	b1 2c       	mov	r11, r1
    132a:	c1 2c       	mov	r12, r1
    132c:	d1 2c       	mov	r13, r1
    132e:	d6 01       	movw	r26, r12
    1330:	c5 01       	movw	r24, r10
    1332:	8e 19       	sub	r24, r14
    1334:	9f 09       	sbc	r25, r15
    1336:	a0 0b       	sbc	r26, r16
    1338:	b1 0b       	sbc	r27, r17
    133a:	7c 01       	movw	r14, r24
    133c:	8d 01       	movw	r16, r26
    133e:	e2 1a       	sub	r14, r18
    1340:	f1 08       	sbc	r15, r1
    1342:	01 09       	sbc	r16, r1
    1344:	11 09       	sbc	r17, r1
    1346:	e9 ae       	std	Y+57, r14	; 0x39
    1348:	fa ae       	std	Y+58, r15	; 0x3a
    134a:	0b af       	std	Y+59, r16	; 0x3b
    134c:	1c af       	std	Y+60, r17	; 0x3c
    134e:	e1 14       	cp	r14, r1
    1350:	f1 04       	cpc	r15, r1
    1352:	01 05       	cpc	r16, r1
    1354:	11 05       	cpc	r17, r1
    1356:	39 f4       	brne	.+14     	; 0x1366 <__umoddi3+0x39c>
    1358:	64 01       	movw	r12, r8
    135a:	53 01       	movw	r10, r6
    135c:	a2 18       	sub	r10, r2
    135e:	b3 08       	sbc	r11, r3
    1360:	c4 08       	sbc	r12, r4
    1362:	d5 08       	sbc	r13, r5
    1364:	e2 c0       	rjmp	.+452    	; 0x152a <__umoddi3+0x560>
    1366:	f9 ac       	ldd	r15, Y+57	; 0x39
    1368:	68 96       	adiw	r28, 0x18	; 24
    136a:	ff ae       	std	Y+63, r15	; 0x3f
    136c:	68 97       	sbiw	r28, 0x18	; 24
    136e:	0f 2c       	mov	r0, r15
    1370:	04 c0       	rjmp	.+8      	; 0x137a <__umoddi3+0x3b0>
    1372:	22 0c       	add	r2, r2
    1374:	33 1c       	adc	r3, r3
    1376:	44 1c       	adc	r4, r4
    1378:	55 1c       	adc	r5, r5
    137a:	0a 94       	dec	r0
    137c:	d2 f7       	brpl	.-12     	; 0x1372 <__umoddi3+0x3a8>
    137e:	8a 2d       	mov	r24, r10
    1380:	8f 19       	sub	r24, r15
    1382:	64 01       	movw	r12, r8
    1384:	53 01       	movw	r10, r6
    1386:	08 2e       	mov	r0, r24
    1388:	04 c0       	rjmp	.+8      	; 0x1392 <__umoddi3+0x3c8>
    138a:	d6 94       	lsr	r13
    138c:	c7 94       	ror	r12
    138e:	b7 94       	ror	r11
    1390:	a7 94       	ror	r10
    1392:	0a 94       	dec	r0
    1394:	d2 f7       	brpl	.-12     	; 0x138a <__umoddi3+0x3c0>
    1396:	a4 01       	movw	r20, r8
    1398:	93 01       	movw	r18, r6
    139a:	04 c0       	rjmp	.+8      	; 0x13a4 <__umoddi3+0x3da>
    139c:	22 0f       	add	r18, r18
    139e:	33 1f       	adc	r19, r19
    13a0:	44 1f       	adc	r20, r20
    13a2:	55 1f       	adc	r21, r21
    13a4:	fa 94       	dec	r15
    13a6:	d2 f7       	brpl	.-12     	; 0x139c <__umoddi3+0x3d2>
    13a8:	6c 96       	adiw	r28, 0x1c	; 28
    13aa:	6c ac       	ldd	r6, Y+60	; 0x3c
    13ac:	7d ac       	ldd	r7, Y+61	; 0x3d
    13ae:	8e ac       	ldd	r8, Y+62	; 0x3e
    13b0:	9f ac       	ldd	r9, Y+63	; 0x3f
    13b2:	6c 97       	sbiw	r28, 0x1c	; 28
    13b4:	04 c0       	rjmp	.+8      	; 0x13be <__umoddi3+0x3f4>
    13b6:	96 94       	lsr	r9
    13b8:	87 94       	ror	r8
    13ba:	77 94       	ror	r7
    13bc:	67 94       	ror	r6
    13be:	8a 95       	dec	r24
    13c0:	d2 f7       	brpl	.-12     	; 0x13b6 <__umoddi3+0x3ec>
    13c2:	84 01       	movw	r16, r8
    13c4:	73 01       	movw	r14, r6
    13c6:	e2 2a       	or	r14, r18
    13c8:	f3 2a       	or	r15, r19
    13ca:	04 2b       	or	r16, r20
    13cc:	15 2b       	or	r17, r21
    13ce:	ed a6       	std	Y+45, r14	; 0x2d
    13d0:	fe a6       	std	Y+46, r15	; 0x2e
    13d2:	0f a7       	std	Y+47, r16	; 0x2f
    13d4:	18 ab       	std	Y+48, r17	; 0x30
    13d6:	32 01       	movw	r6, r4
    13d8:	88 24       	eor	r8, r8
    13da:	99 24       	eor	r9, r9
    13dc:	b2 01       	movw	r22, r4
    13de:	a1 01       	movw	r20, r2
    13e0:	60 70       	andi	r22, 0x00	; 0
    13e2:	70 70       	andi	r23, 0x00	; 0
    13e4:	25 96       	adiw	r28, 0x05	; 5
    13e6:	4c af       	std	Y+60, r20	; 0x3c
    13e8:	5d af       	std	Y+61, r21	; 0x3d
    13ea:	6e af       	std	Y+62, r22	; 0x3e
    13ec:	7f af       	std	Y+63, r23	; 0x3f
    13ee:	25 97       	sbiw	r28, 0x05	; 5
    13f0:	c6 01       	movw	r24, r12
    13f2:	b5 01       	movw	r22, r10
    13f4:	a4 01       	movw	r20, r8
    13f6:	93 01       	movw	r18, r6
    13f8:	0e 94 7a 1f 	call	0x3ef4	; 0x3ef4 <__udivmodsi4>
    13fc:	7b 01       	movw	r14, r22
    13fe:	8c 01       	movw	r16, r24
    1400:	c6 01       	movw	r24, r12
    1402:	b5 01       	movw	r22, r10
    1404:	a4 01       	movw	r20, r8
    1406:	93 01       	movw	r18, r6
    1408:	0e 94 7a 1f 	call	0x3ef4	; 0x3ef4 <__udivmodsi4>
    140c:	ca 01       	movw	r24, r20
    140e:	b9 01       	movw	r22, r18
    1410:	25 96       	adiw	r28, 0x05	; 5
    1412:	2c ad       	ldd	r18, Y+60	; 0x3c
    1414:	3d ad       	ldd	r19, Y+61	; 0x3d
    1416:	4e ad       	ldd	r20, Y+62	; 0x3e
    1418:	5f ad       	ldd	r21, Y+63	; 0x3f
    141a:	25 97       	sbiw	r28, 0x05	; 5
    141c:	0e 94 40 1f 	call	0x3e80	; 0x3e80 <__mulsi3>
    1420:	9b 01       	movw	r18, r22
    1422:	ac 01       	movw	r20, r24
    1424:	87 01       	movw	r16, r14
    1426:	ff 24       	eor	r15, r15
    1428:	ee 24       	eor	r14, r14
    142a:	ad a4       	ldd	r10, Y+45	; 0x2d
    142c:	be a4       	ldd	r11, Y+46	; 0x2e
    142e:	cf a4       	ldd	r12, Y+47	; 0x2f
    1430:	d8 a8       	ldd	r13, Y+48	; 0x30
    1432:	c6 01       	movw	r24, r12
    1434:	aa 27       	eor	r26, r26
    1436:	bb 27       	eor	r27, r27
    1438:	5c 01       	movw	r10, r24
    143a:	6d 01       	movw	r12, r26
    143c:	ae 28       	or	r10, r14
    143e:	bf 28       	or	r11, r15
    1440:	c0 2a       	or	r12, r16
    1442:	d1 2a       	or	r13, r17
    1444:	a2 16       	cp	r10, r18
    1446:	b3 06       	cpc	r11, r19
    1448:	c4 06       	cpc	r12, r20
    144a:	d5 06       	cpc	r13, r21
    144c:	90 f4       	brcc	.+36     	; 0x1472 <__umoddi3+0x4a8>
    144e:	a2 0c       	add	r10, r2
    1450:	b3 1c       	adc	r11, r3
    1452:	c4 1c       	adc	r12, r4
    1454:	d5 1c       	adc	r13, r5
    1456:	a2 14       	cp	r10, r2
    1458:	b3 04       	cpc	r11, r3
    145a:	c4 04       	cpc	r12, r4
    145c:	d5 04       	cpc	r13, r5
    145e:	48 f0       	brcs	.+18     	; 0x1472 <__umoddi3+0x4a8>
    1460:	a2 16       	cp	r10, r18
    1462:	b3 06       	cpc	r11, r19
    1464:	c4 06       	cpc	r12, r20
    1466:	d5 06       	cpc	r13, r21
    1468:	20 f4       	brcc	.+8      	; 0x1472 <__umoddi3+0x4a8>
    146a:	a2 0c       	add	r10, r2
    146c:	b3 1c       	adc	r11, r3
    146e:	c4 1c       	adc	r12, r4
    1470:	d5 1c       	adc	r13, r5
    1472:	a2 1a       	sub	r10, r18
    1474:	b3 0a       	sbc	r11, r19
    1476:	c4 0a       	sbc	r12, r20
    1478:	d5 0a       	sbc	r13, r21
    147a:	c6 01       	movw	r24, r12
    147c:	b5 01       	movw	r22, r10
    147e:	a4 01       	movw	r20, r8
    1480:	93 01       	movw	r18, r6
    1482:	0e 94 7a 1f 	call	0x3ef4	; 0x3ef4 <__udivmodsi4>
    1486:	7b 01       	movw	r14, r22
    1488:	8c 01       	movw	r16, r24
    148a:	c6 01       	movw	r24, r12
    148c:	b5 01       	movw	r22, r10
    148e:	a4 01       	movw	r20, r8
    1490:	93 01       	movw	r18, r6
    1492:	0e 94 7a 1f 	call	0x3ef4	; 0x3ef4 <__udivmodsi4>
    1496:	ca 01       	movw	r24, r20
    1498:	b9 01       	movw	r22, r18
    149a:	25 96       	adiw	r28, 0x05	; 5
    149c:	2c ad       	ldd	r18, Y+60	; 0x3c
    149e:	3d ad       	ldd	r19, Y+61	; 0x3d
    14a0:	4e ad       	ldd	r20, Y+62	; 0x3e
    14a2:	5f ad       	ldd	r21, Y+63	; 0x3f
    14a4:	25 97       	sbiw	r28, 0x05	; 5
    14a6:	0e 94 40 1f 	call	0x3e80	; 0x3e80 <__mulsi3>
    14aa:	9b 01       	movw	r18, r22
    14ac:	ac 01       	movw	r20, r24
    14ae:	87 01       	movw	r16, r14
    14b0:	ff 24       	eor	r15, r15
    14b2:	ee 24       	eor	r14, r14
    14b4:	8d a5       	ldd	r24, Y+45	; 0x2d
    14b6:	9e a5       	ldd	r25, Y+46	; 0x2e
    14b8:	af a5       	ldd	r26, Y+47	; 0x2f
    14ba:	b8 a9       	ldd	r27, Y+48	; 0x30
    14bc:	a0 70       	andi	r26, 0x00	; 0
    14be:	b0 70       	andi	r27, 0x00	; 0
    14c0:	57 01       	movw	r10, r14
    14c2:	68 01       	movw	r12, r16
    14c4:	a8 2a       	or	r10, r24
    14c6:	b9 2a       	or	r11, r25
    14c8:	ca 2a       	or	r12, r26
    14ca:	db 2a       	or	r13, r27
    14cc:	a2 16       	cp	r10, r18
    14ce:	b3 06       	cpc	r11, r19
    14d0:	c4 06       	cpc	r12, r20
    14d2:	d5 06       	cpc	r13, r21
    14d4:	90 f4       	brcc	.+36     	; 0x14fa <__umoddi3+0x530>
    14d6:	a2 0c       	add	r10, r2
    14d8:	b3 1c       	adc	r11, r3
    14da:	c4 1c       	adc	r12, r4
    14dc:	d5 1c       	adc	r13, r5
    14de:	a2 14       	cp	r10, r2
    14e0:	b3 04       	cpc	r11, r3
    14e2:	c4 04       	cpc	r12, r4
    14e4:	d5 04       	cpc	r13, r5
    14e6:	48 f0       	brcs	.+18     	; 0x14fa <__umoddi3+0x530>
    14e8:	a2 16       	cp	r10, r18
    14ea:	b3 06       	cpc	r11, r19
    14ec:	c4 06       	cpc	r12, r20
    14ee:	d5 06       	cpc	r13, r21
    14f0:	20 f4       	brcc	.+8      	; 0x14fa <__umoddi3+0x530>
    14f2:	a2 0c       	add	r10, r2
    14f4:	b3 1c       	adc	r11, r3
    14f6:	c4 1c       	adc	r12, r4
    14f8:	d5 1c       	adc	r13, r5
    14fa:	6c 96       	adiw	r28, 0x1c	; 28
    14fc:	ec ac       	ldd	r14, Y+60	; 0x3c
    14fe:	fd ac       	ldd	r15, Y+61	; 0x3d
    1500:	0e ad       	ldd	r16, Y+62	; 0x3e
    1502:	1f ad       	ldd	r17, Y+63	; 0x3f
    1504:	6c 97       	sbiw	r28, 0x1c	; 28
    1506:	68 96       	adiw	r28, 0x18	; 24
    1508:	0f ac       	ldd	r0, Y+63	; 0x3f
    150a:	68 97       	sbiw	r28, 0x18	; 24
    150c:	04 c0       	rjmp	.+8      	; 0x1516 <__umoddi3+0x54c>
    150e:	ee 0c       	add	r14, r14
    1510:	ff 1c       	adc	r15, r15
    1512:	00 1f       	adc	r16, r16
    1514:	11 1f       	adc	r17, r17
    1516:	0a 94       	dec	r0
    1518:	d2 f7       	brpl	.-12     	; 0x150e <__umoddi3+0x544>
    151a:	e9 aa       	std	Y+49, r14	; 0x31
    151c:	fa aa       	std	Y+50, r15	; 0x32
    151e:	0b ab       	std	Y+51, r16	; 0x33
    1520:	1c ab       	std	Y+52, r17	; 0x34
    1522:	a2 1a       	sub	r10, r18
    1524:	b3 0a       	sbc	r11, r19
    1526:	c4 0a       	sbc	r12, r20
    1528:	d5 0a       	sbc	r13, r21
    152a:	32 01       	movw	r6, r4
    152c:	88 24       	eor	r8, r8
    152e:	99 24       	eor	r9, r9
    1530:	b2 01       	movw	r22, r4
    1532:	a1 01       	movw	r20, r2
    1534:	60 70       	andi	r22, 0x00	; 0
    1536:	70 70       	andi	r23, 0x00	; 0
    1538:	29 96       	adiw	r28, 0x09	; 9
    153a:	4c af       	std	Y+60, r20	; 0x3c
    153c:	5d af       	std	Y+61, r21	; 0x3d
    153e:	6e af       	std	Y+62, r22	; 0x3e
    1540:	7f af       	std	Y+63, r23	; 0x3f
    1542:	29 97       	sbiw	r28, 0x09	; 9
    1544:	c6 01       	movw	r24, r12
    1546:	b5 01       	movw	r22, r10
    1548:	a4 01       	movw	r20, r8
    154a:	93 01       	movw	r18, r6
    154c:	0e 94 7a 1f 	call	0x3ef4	; 0x3ef4 <__udivmodsi4>
    1550:	7b 01       	movw	r14, r22
    1552:	8c 01       	movw	r16, r24
    1554:	c6 01       	movw	r24, r12
    1556:	b5 01       	movw	r22, r10
    1558:	a4 01       	movw	r20, r8
    155a:	93 01       	movw	r18, r6
    155c:	0e 94 7a 1f 	call	0x3ef4	; 0x3ef4 <__udivmodsi4>
    1560:	ca 01       	movw	r24, r20
    1562:	b9 01       	movw	r22, r18
    1564:	29 96       	adiw	r28, 0x09	; 9
    1566:	2c ad       	ldd	r18, Y+60	; 0x3c
    1568:	3d ad       	ldd	r19, Y+61	; 0x3d
    156a:	4e ad       	ldd	r20, Y+62	; 0x3e
    156c:	5f ad       	ldd	r21, Y+63	; 0x3f
    156e:	29 97       	sbiw	r28, 0x09	; 9
    1570:	0e 94 40 1f 	call	0x3e80	; 0x3e80 <__mulsi3>
    1574:	9b 01       	movw	r18, r22
    1576:	ac 01       	movw	r20, r24
    1578:	87 01       	movw	r16, r14
    157a:	ff 24       	eor	r15, r15
    157c:	ee 24       	eor	r14, r14
    157e:	a9 a8       	ldd	r10, Y+49	; 0x31
    1580:	ba a8       	ldd	r11, Y+50	; 0x32
    1582:	cb a8       	ldd	r12, Y+51	; 0x33
    1584:	dc a8       	ldd	r13, Y+52	; 0x34
    1586:	c6 01       	movw	r24, r12
    1588:	aa 27       	eor	r26, r26
    158a:	bb 27       	eor	r27, r27
    158c:	57 01       	movw	r10, r14
    158e:	68 01       	movw	r12, r16
    1590:	a8 2a       	or	r10, r24
    1592:	b9 2a       	or	r11, r25
    1594:	ca 2a       	or	r12, r26
    1596:	db 2a       	or	r13, r27
    1598:	a2 16       	cp	r10, r18
    159a:	b3 06       	cpc	r11, r19
    159c:	c4 06       	cpc	r12, r20
    159e:	d5 06       	cpc	r13, r21
    15a0:	90 f4       	brcc	.+36     	; 0x15c6 <__umoddi3+0x5fc>
    15a2:	a2 0c       	add	r10, r2
    15a4:	b3 1c       	adc	r11, r3
    15a6:	c4 1c       	adc	r12, r4
    15a8:	d5 1c       	adc	r13, r5
    15aa:	a2 14       	cp	r10, r2
    15ac:	b3 04       	cpc	r11, r3
    15ae:	c4 04       	cpc	r12, r4
    15b0:	d5 04       	cpc	r13, r5
    15b2:	48 f0       	brcs	.+18     	; 0x15c6 <__umoddi3+0x5fc>
    15b4:	a2 16       	cp	r10, r18
    15b6:	b3 06       	cpc	r11, r19
    15b8:	c4 06       	cpc	r12, r20
    15ba:	d5 06       	cpc	r13, r21
    15bc:	20 f4       	brcc	.+8      	; 0x15c6 <__umoddi3+0x5fc>
    15be:	a2 0c       	add	r10, r2
    15c0:	b3 1c       	adc	r11, r3
    15c2:	c4 1c       	adc	r12, r4
    15c4:	d5 1c       	adc	r13, r5
    15c6:	a2 1a       	sub	r10, r18
    15c8:	b3 0a       	sbc	r11, r19
    15ca:	c4 0a       	sbc	r12, r20
    15cc:	d5 0a       	sbc	r13, r21
    15ce:	c6 01       	movw	r24, r12
    15d0:	b5 01       	movw	r22, r10
    15d2:	a4 01       	movw	r20, r8
    15d4:	93 01       	movw	r18, r6
    15d6:	0e 94 7a 1f 	call	0x3ef4	; 0x3ef4 <__udivmodsi4>
    15da:	7b 01       	movw	r14, r22
    15dc:	8c 01       	movw	r16, r24
    15de:	c6 01       	movw	r24, r12
    15e0:	b5 01       	movw	r22, r10
    15e2:	a4 01       	movw	r20, r8
    15e4:	93 01       	movw	r18, r6
    15e6:	0e 94 7a 1f 	call	0x3ef4	; 0x3ef4 <__udivmodsi4>
    15ea:	ca 01       	movw	r24, r20
    15ec:	b9 01       	movw	r22, r18
    15ee:	29 96       	adiw	r28, 0x09	; 9
    15f0:	2c ad       	ldd	r18, Y+60	; 0x3c
    15f2:	3d ad       	ldd	r19, Y+61	; 0x3d
    15f4:	4e ad       	ldd	r20, Y+62	; 0x3e
    15f6:	5f ad       	ldd	r21, Y+63	; 0x3f
    15f8:	29 97       	sbiw	r28, 0x09	; 9
    15fa:	0e 94 40 1f 	call	0x3e80	; 0x3e80 <__mulsi3>
    15fe:	9b 01       	movw	r18, r22
    1600:	ac 01       	movw	r20, r24
    1602:	87 01       	movw	r16, r14
    1604:	ff 24       	eor	r15, r15
    1606:	ee 24       	eor	r14, r14
    1608:	89 a9       	ldd	r24, Y+49	; 0x31
    160a:	9a a9       	ldd	r25, Y+50	; 0x32
    160c:	ab a9       	ldd	r26, Y+51	; 0x33
    160e:	bc a9       	ldd	r27, Y+52	; 0x34
    1610:	a0 70       	andi	r26, 0x00	; 0
    1612:	b0 70       	andi	r27, 0x00	; 0
    1614:	e8 2a       	or	r14, r24
    1616:	f9 2a       	or	r15, r25
    1618:	0a 2b       	or	r16, r26
    161a:	1b 2b       	or	r17, r27
    161c:	e2 16       	cp	r14, r18
    161e:	f3 06       	cpc	r15, r19
    1620:	04 07       	cpc	r16, r20
    1622:	15 07       	cpc	r17, r21
    1624:	90 f4       	brcc	.+36     	; 0x164a <__umoddi3+0x680>
    1626:	e2 0c       	add	r14, r2
    1628:	f3 1c       	adc	r15, r3
    162a:	04 1d       	adc	r16, r4
    162c:	15 1d       	adc	r17, r5
    162e:	e2 14       	cp	r14, r2
    1630:	f3 04       	cpc	r15, r3
    1632:	04 05       	cpc	r16, r4
    1634:	15 05       	cpc	r17, r5
    1636:	48 f0       	brcs	.+18     	; 0x164a <__umoddi3+0x680>
    1638:	e2 16       	cp	r14, r18
    163a:	f3 06       	cpc	r15, r19
    163c:	04 07       	cpc	r16, r20
    163e:	15 07       	cpc	r17, r21
    1640:	20 f4       	brcc	.+8      	; 0x164a <__umoddi3+0x680>
    1642:	e2 0c       	add	r14, r2
    1644:	f3 1c       	adc	r15, r3
    1646:	04 1d       	adc	r16, r4
    1648:	15 1d       	adc	r17, r5
    164a:	e2 1a       	sub	r14, r18
    164c:	f3 0a       	sbc	r15, r19
    164e:	04 0b       	sbc	r16, r20
    1650:	15 0b       	sbc	r17, r21
    1652:	d8 01       	movw	r26, r16
    1654:	c7 01       	movw	r24, r14
    1656:	09 ac       	ldd	r0, Y+57	; 0x39
    1658:	04 c0       	rjmp	.+8      	; 0x1662 <__umoddi3+0x698>
    165a:	b6 95       	lsr	r27
    165c:	a7 95       	ror	r26
    165e:	97 95       	ror	r25
    1660:	87 95       	ror	r24
    1662:	0a 94       	dec	r0
    1664:	d2 f7       	brpl	.-12     	; 0x165a <__umoddi3+0x690>
    1666:	89 8b       	std	Y+17, r24	; 0x11
    1668:	9a 8b       	std	Y+18, r25	; 0x12
    166a:	ab 8b       	std	Y+19, r26	; 0x13
    166c:	bc 8b       	std	Y+20, r27	; 0x14
    166e:	1d 8a       	std	Y+21, r1	; 0x15
    1670:	1e 8a       	std	Y+22, r1	; 0x16
    1672:	1f 8a       	std	Y+23, r1	; 0x17
    1674:	18 8e       	std	Y+24, r1	; 0x18
    1676:	28 2f       	mov	r18, r24
    1678:	3a 89       	ldd	r19, Y+18	; 0x12
    167a:	4b 89       	ldd	r20, Y+19	; 0x13
    167c:	5c 89       	ldd	r21, Y+20	; 0x14
    167e:	6d 89       	ldd	r22, Y+21	; 0x15
    1680:	0c c3       	rjmp	.+1560   	; 0x1c9a <__umoddi3+0xcd0>
    1682:	6a 14       	cp	r6, r10
    1684:	7b 04       	cpc	r7, r11
    1686:	8c 04       	cpc	r8, r12
    1688:	9d 04       	cpc	r9, r13
    168a:	08 f4       	brcc	.+2      	; 0x168e <__umoddi3+0x6c4>
    168c:	09 c3       	rjmp	.+1554   	; 0x1ca0 <__umoddi3+0xcd6>
    168e:	00 e0       	ldi	r16, 0x00	; 0
    1690:	a0 16       	cp	r10, r16
    1692:	00 e0       	ldi	r16, 0x00	; 0
    1694:	b0 06       	cpc	r11, r16
    1696:	01 e0       	ldi	r16, 0x01	; 1
    1698:	c0 06       	cpc	r12, r16
    169a:	00 e0       	ldi	r16, 0x00	; 0
    169c:	d0 06       	cpc	r13, r16
    169e:	88 f4       	brcc	.+34     	; 0x16c2 <__umoddi3+0x6f8>
    16a0:	1f ef       	ldi	r17, 0xFF	; 255
    16a2:	a1 16       	cp	r10, r17
    16a4:	b1 04       	cpc	r11, r1
    16a6:	c1 04       	cpc	r12, r1
    16a8:	d1 04       	cpc	r13, r1
    16aa:	39 f0       	breq	.+14     	; 0x16ba <__umoddi3+0x6f0>
    16ac:	30 f0       	brcs	.+12     	; 0x16ba <__umoddi3+0x6f0>
    16ae:	28 e0       	ldi	r18, 0x08	; 8
    16b0:	e2 2e       	mov	r14, r18
    16b2:	f1 2c       	mov	r15, r1
    16b4:	01 2d       	mov	r16, r1
    16b6:	11 2d       	mov	r17, r1
    16b8:	18 c0       	rjmp	.+48     	; 0x16ea <__umoddi3+0x720>
    16ba:	ee 24       	eor	r14, r14
    16bc:	ff 24       	eor	r15, r15
    16be:	87 01       	movw	r16, r14
    16c0:	14 c0       	rjmp	.+40     	; 0x16ea <__umoddi3+0x720>
    16c2:	40 e0       	ldi	r20, 0x00	; 0
    16c4:	a4 16       	cp	r10, r20
    16c6:	40 e0       	ldi	r20, 0x00	; 0
    16c8:	b4 06       	cpc	r11, r20
    16ca:	40 e0       	ldi	r20, 0x00	; 0
    16cc:	c4 06       	cpc	r12, r20
    16ce:	41 e0       	ldi	r20, 0x01	; 1
    16d0:	d4 06       	cpc	r13, r20
    16d2:	30 f0       	brcs	.+12     	; 0x16e0 <__umoddi3+0x716>
    16d4:	98 e1       	ldi	r25, 0x18	; 24
    16d6:	e9 2e       	mov	r14, r25
    16d8:	f1 2c       	mov	r15, r1
    16da:	01 2d       	mov	r16, r1
    16dc:	11 2d       	mov	r17, r1
    16de:	05 c0       	rjmp	.+10     	; 0x16ea <__umoddi3+0x720>
    16e0:	80 e1       	ldi	r24, 0x10	; 16
    16e2:	e8 2e       	mov	r14, r24
    16e4:	f1 2c       	mov	r15, r1
    16e6:	01 2d       	mov	r16, r1
    16e8:	11 2d       	mov	r17, r1
    16ea:	d6 01       	movw	r26, r12
    16ec:	c5 01       	movw	r24, r10
    16ee:	0e 2c       	mov	r0, r14
    16f0:	04 c0       	rjmp	.+8      	; 0x16fa <__umoddi3+0x730>
    16f2:	b6 95       	lsr	r27
    16f4:	a7 95       	ror	r26
    16f6:	97 95       	ror	r25
    16f8:	87 95       	ror	r24
    16fa:	0a 94       	dec	r0
    16fc:	d2 f7       	brpl	.-12     	; 0x16f2 <__umoddi3+0x728>
    16fe:	88 59       	subi	r24, 0x98	; 152
    1700:	9f 4f       	sbci	r25, 0xFF	; 255
    1702:	dc 01       	movw	r26, r24
    1704:	2c 91       	ld	r18, X
    1706:	80 e2       	ldi	r24, 0x20	; 32
    1708:	90 e0       	ldi	r25, 0x00	; 0
    170a:	a0 e0       	ldi	r26, 0x00	; 0
    170c:	b0 e0       	ldi	r27, 0x00	; 0
    170e:	8e 19       	sub	r24, r14
    1710:	9f 09       	sbc	r25, r15
    1712:	a0 0b       	sbc	r26, r16
    1714:	b1 0b       	sbc	r27, r17
    1716:	82 1b       	sub	r24, r18
    1718:	91 09       	sbc	r25, r1
    171a:	a1 09       	sbc	r26, r1
    171c:	b1 09       	sbc	r27, r1
    171e:	00 97       	sbiw	r24, 0x00	; 0
    1720:	a1 05       	cpc	r26, r1
    1722:	b1 05       	cpc	r27, r1
    1724:	09 f0       	breq	.+2      	; 0x1728 <__umoddi3+0x75e>
    1726:	4f c0       	rjmp	.+158    	; 0x17c6 <__umoddi3+0x7fc>
    1728:	a6 14       	cp	r10, r6
    172a:	b7 04       	cpc	r11, r7
    172c:	c8 04       	cpc	r12, r8
    172e:	d9 04       	cpc	r13, r9
    1730:	58 f0       	brcs	.+22     	; 0x1748 <__umoddi3+0x77e>
    1732:	6c 96       	adiw	r28, 0x1c	; 28
    1734:	ec ac       	ldd	r14, Y+60	; 0x3c
    1736:	fd ac       	ldd	r15, Y+61	; 0x3d
    1738:	0e ad       	ldd	r16, Y+62	; 0x3e
    173a:	1f ad       	ldd	r17, Y+63	; 0x3f
    173c:	6c 97       	sbiw	r28, 0x1c	; 28
    173e:	e2 14       	cp	r14, r2
    1740:	f3 04       	cpc	r15, r3
    1742:	04 05       	cpc	r16, r4
    1744:	15 05       	cpc	r17, r5
    1746:	68 f1       	brcs	.+90     	; 0x17a2 <__umoddi3+0x7d8>
    1748:	6c 96       	adiw	r28, 0x1c	; 28
    174a:	ec ac       	ldd	r14, Y+60	; 0x3c
    174c:	fd ac       	ldd	r15, Y+61	; 0x3d
    174e:	0e ad       	ldd	r16, Y+62	; 0x3e
    1750:	1f ad       	ldd	r17, Y+63	; 0x3f
    1752:	6c 97       	sbiw	r28, 0x1c	; 28
    1754:	e2 18       	sub	r14, r2
    1756:	f3 08       	sbc	r15, r3
    1758:	04 09       	sbc	r16, r4
    175a:	15 09       	sbc	r17, r5
    175c:	a4 01       	movw	r20, r8
    175e:	93 01       	movw	r18, r6
    1760:	2a 19       	sub	r18, r10
    1762:	3b 09       	sbc	r19, r11
    1764:	4c 09       	sbc	r20, r12
    1766:	5d 09       	sbc	r21, r13
    1768:	aa 24       	eor	r10, r10
    176a:	bb 24       	eor	r11, r11
    176c:	65 01       	movw	r12, r10
    176e:	6c 96       	adiw	r28, 0x1c	; 28
    1770:	6c ad       	ldd	r22, Y+60	; 0x3c
    1772:	7d ad       	ldd	r23, Y+61	; 0x3d
    1774:	8e ad       	ldd	r24, Y+62	; 0x3e
    1776:	9f ad       	ldd	r25, Y+63	; 0x3f
    1778:	6c 97       	sbiw	r28, 0x1c	; 28
    177a:	6e 15       	cp	r22, r14
    177c:	7f 05       	cpc	r23, r15
    177e:	80 07       	cpc	r24, r16
    1780:	91 07       	cpc	r25, r17
    1782:	28 f4       	brcc	.+10     	; 0x178e <__umoddi3+0x7c4>
    1784:	b1 e0       	ldi	r27, 0x01	; 1
    1786:	ab 2e       	mov	r10, r27
    1788:	b1 2c       	mov	r11, r1
    178a:	c1 2c       	mov	r12, r1
    178c:	d1 2c       	mov	r13, r1
    178e:	da 01       	movw	r26, r20
    1790:	c9 01       	movw	r24, r18
    1792:	8a 19       	sub	r24, r10
    1794:	9b 09       	sbc	r25, r11
    1796:	ac 09       	sbc	r26, r12
    1798:	bd 09       	sbc	r27, r13
    179a:	8d ab       	std	Y+53, r24	; 0x35
    179c:	9e ab       	std	Y+54, r25	; 0x36
    179e:	af ab       	std	Y+55, r26	; 0x37
    17a0:	b8 af       	std	Y+56, r27	; 0x38
    17a2:	e9 8a       	std	Y+17, r14	; 0x11
    17a4:	fa 8a       	std	Y+18, r15	; 0x12
    17a6:	0b 8b       	std	Y+19, r16	; 0x13
    17a8:	1c 8b       	std	Y+20, r17	; 0x14
    17aa:	6d a8       	ldd	r6, Y+53	; 0x35
    17ac:	7e a8       	ldd	r7, Y+54	; 0x36
    17ae:	8f a8       	ldd	r8, Y+55	; 0x37
    17b0:	98 ac       	ldd	r9, Y+56	; 0x38
    17b2:	6d 8a       	std	Y+21, r6	; 0x15
    17b4:	7e 8a       	std	Y+22, r7	; 0x16
    17b6:	8f 8a       	std	Y+23, r8	; 0x17
    17b8:	98 8e       	std	Y+24, r9	; 0x18
    17ba:	2e 2d       	mov	r18, r14
    17bc:	3a 89       	ldd	r19, Y+18	; 0x12
    17be:	4b 89       	ldd	r20, Y+19	; 0x13
    17c0:	5c 89       	ldd	r21, Y+20	; 0x14
    17c2:	6d a9       	ldd	r22, Y+53	; 0x35
    17c4:	6a c2       	rjmp	.+1236   	; 0x1c9a <__umoddi3+0xcd0>
    17c6:	67 96       	adiw	r28, 0x17	; 23
    17c8:	8f af       	std	Y+63, r24	; 0x3f
    17ca:	67 97       	sbiw	r28, 0x17	; 23
    17cc:	a6 01       	movw	r20, r12
    17ce:	95 01       	movw	r18, r10
    17d0:	08 2e       	mov	r0, r24
    17d2:	04 c0       	rjmp	.+8      	; 0x17dc <__umoddi3+0x812>
    17d4:	22 0f       	add	r18, r18
    17d6:	33 1f       	adc	r19, r19
    17d8:	44 1f       	adc	r20, r20
    17da:	55 1f       	adc	r21, r21
    17dc:	0a 94       	dec	r0
    17de:	d2 f7       	brpl	.-12     	; 0x17d4 <__umoddi3+0x80a>
    17e0:	a0 e2       	ldi	r26, 0x20	; 32
    17e2:	aa 2e       	mov	r10, r26
    17e4:	a8 1a       	sub	r10, r24
    17e6:	66 96       	adiw	r28, 0x16	; 22
    17e8:	af ae       	std	Y+63, r10	; 0x3f
    17ea:	66 97       	sbiw	r28, 0x16	; 22
    17ec:	d2 01       	movw	r26, r4
    17ee:	c1 01       	movw	r24, r2
    17f0:	04 c0       	rjmp	.+8      	; 0x17fa <__umoddi3+0x830>
    17f2:	b6 95       	lsr	r27
    17f4:	a7 95       	ror	r26
    17f6:	97 95       	ror	r25
    17f8:	87 95       	ror	r24
    17fa:	aa 94       	dec	r10
    17fc:	d2 f7       	brpl	.-12     	; 0x17f2 <__umoddi3+0x828>
    17fe:	6c 01       	movw	r12, r24
    1800:	7d 01       	movw	r14, r26
    1802:	c2 2a       	or	r12, r18
    1804:	d3 2a       	or	r13, r19
    1806:	e4 2a       	or	r14, r20
    1808:	f5 2a       	or	r15, r21
    180a:	c9 a6       	std	Y+41, r12	; 0x29
    180c:	da a6       	std	Y+42, r13	; 0x2a
    180e:	eb a6       	std	Y+43, r14	; 0x2b
    1810:	fc a6       	std	Y+44, r15	; 0x2c
    1812:	82 01       	movw	r16, r4
    1814:	71 01       	movw	r14, r2
    1816:	67 96       	adiw	r28, 0x17	; 23
    1818:	0f ac       	ldd	r0, Y+63	; 0x3f
    181a:	67 97       	sbiw	r28, 0x17	; 23
    181c:	04 c0       	rjmp	.+8      	; 0x1826 <__umoddi3+0x85c>
    181e:	ee 0c       	add	r14, r14
    1820:	ff 1c       	adc	r15, r15
    1822:	00 1f       	adc	r16, r16
    1824:	11 1f       	adc	r17, r17
    1826:	0a 94       	dec	r0
    1828:	d2 f7       	brpl	.-12     	; 0x181e <__umoddi3+0x854>
    182a:	ed a2       	std	Y+37, r14	; 0x25
    182c:	fe a2       	std	Y+38, r15	; 0x26
    182e:	0f a3       	std	Y+39, r16	; 0x27
    1830:	18 a7       	std	Y+40, r17	; 0x28
    1832:	64 01       	movw	r12, r8
    1834:	53 01       	movw	r10, r6
    1836:	66 96       	adiw	r28, 0x16	; 22
    1838:	0f ac       	ldd	r0, Y+63	; 0x3f
    183a:	66 97       	sbiw	r28, 0x16	; 22
    183c:	04 c0       	rjmp	.+8      	; 0x1846 <__umoddi3+0x87c>
    183e:	d6 94       	lsr	r13
    1840:	c7 94       	ror	r12
    1842:	b7 94       	ror	r11
    1844:	a7 94       	ror	r10
    1846:	0a 94       	dec	r0
    1848:	d2 f7       	brpl	.-12     	; 0x183e <__umoddi3+0x874>
    184a:	a4 01       	movw	r20, r8
    184c:	93 01       	movw	r18, r6
    184e:	67 96       	adiw	r28, 0x17	; 23
    1850:	0f ac       	ldd	r0, Y+63	; 0x3f
    1852:	67 97       	sbiw	r28, 0x17	; 23
    1854:	04 c0       	rjmp	.+8      	; 0x185e <__umoddi3+0x894>
    1856:	22 0f       	add	r18, r18
    1858:	33 1f       	adc	r19, r19
    185a:	44 1f       	adc	r20, r20
    185c:	55 1f       	adc	r21, r21
    185e:	0a 94       	dec	r0
    1860:	d2 f7       	brpl	.-12     	; 0x1856 <__umoddi3+0x88c>
    1862:	6c 96       	adiw	r28, 0x1c	; 28
    1864:	8c ad       	ldd	r24, Y+60	; 0x3c
    1866:	9d ad       	ldd	r25, Y+61	; 0x3d
    1868:	ae ad       	ldd	r26, Y+62	; 0x3e
    186a:	bf ad       	ldd	r27, Y+63	; 0x3f
    186c:	6c 97       	sbiw	r28, 0x1c	; 28
    186e:	66 96       	adiw	r28, 0x16	; 22
    1870:	0f ac       	ldd	r0, Y+63	; 0x3f
    1872:	66 97       	sbiw	r28, 0x16	; 22
    1874:	04 c0       	rjmp	.+8      	; 0x187e <__umoddi3+0x8b4>
    1876:	b6 95       	lsr	r27
    1878:	a7 95       	ror	r26
    187a:	97 95       	ror	r25
    187c:	87 95       	ror	r24
    187e:	0a 94       	dec	r0
    1880:	d2 f7       	brpl	.-12     	; 0x1876 <__umoddi3+0x8ac>
    1882:	3c 01       	movw	r6, r24
    1884:	4d 01       	movw	r8, r26
    1886:	62 2a       	or	r6, r18
    1888:	73 2a       	or	r7, r19
    188a:	84 2a       	or	r8, r20
    188c:	95 2a       	or	r9, r21
    188e:	69 a2       	std	Y+33, r6	; 0x21
    1890:	7a a2       	std	Y+34, r7	; 0x22
    1892:	8b a2       	std	Y+35, r8	; 0x23
    1894:	9c a2       	std	Y+36, r9	; 0x24
    1896:	6c 96       	adiw	r28, 0x1c	; 28
    1898:	ec ac       	ldd	r14, Y+60	; 0x3c
    189a:	fd ac       	ldd	r15, Y+61	; 0x3d
    189c:	0e ad       	ldd	r16, Y+62	; 0x3e
    189e:	1f ad       	ldd	r17, Y+63	; 0x3f
    18a0:	6c 97       	sbiw	r28, 0x1c	; 28
    18a2:	67 96       	adiw	r28, 0x17	; 23
    18a4:	0f ac       	ldd	r0, Y+63	; 0x3f
    18a6:	67 97       	sbiw	r28, 0x17	; 23
    18a8:	04 c0       	rjmp	.+8      	; 0x18b2 <__umoddi3+0x8e8>
    18aa:	ee 0c       	add	r14, r14
    18ac:	ff 1c       	adc	r15, r15
    18ae:	00 1f       	adc	r16, r16
    18b0:	11 1f       	adc	r17, r17
    18b2:	0a 94       	dec	r0
    18b4:	d2 f7       	brpl	.-12     	; 0x18aa <__umoddi3+0x8e0>
    18b6:	ed 8e       	std	Y+29, r14	; 0x1d
    18b8:	fe 8e       	std	Y+30, r15	; 0x1e
    18ba:	0f 8f       	std	Y+31, r16	; 0x1f
    18bc:	18 a3       	std	Y+32, r17	; 0x20
    18be:	49 a5       	ldd	r20, Y+41	; 0x29
    18c0:	5a a5       	ldd	r21, Y+42	; 0x2a
    18c2:	6b a5       	ldd	r22, Y+43	; 0x2b
    18c4:	7c a5       	ldd	r23, Y+44	; 0x2c
    18c6:	3b 01       	movw	r6, r22
    18c8:	88 24       	eor	r8, r8
    18ca:	99 24       	eor	r9, r9
    18cc:	60 70       	andi	r22, 0x00	; 0
    18ce:	70 70       	andi	r23, 0x00	; 0
    18d0:	2d 96       	adiw	r28, 0x0d	; 13
    18d2:	4c af       	std	Y+60, r20	; 0x3c
    18d4:	5d af       	std	Y+61, r21	; 0x3d
    18d6:	6e af       	std	Y+62, r22	; 0x3e
    18d8:	7f af       	std	Y+63, r23	; 0x3f
    18da:	2d 97       	sbiw	r28, 0x0d	; 13
    18dc:	c6 01       	movw	r24, r12
    18de:	b5 01       	movw	r22, r10
    18e0:	a4 01       	movw	r20, r8
    18e2:	93 01       	movw	r18, r6
    18e4:	0e 94 7a 1f 	call	0x3ef4	; 0x3ef4 <__udivmodsi4>
    18e8:	7b 01       	movw	r14, r22
    18ea:	8c 01       	movw	r16, r24
    18ec:	c6 01       	movw	r24, r12
    18ee:	b5 01       	movw	r22, r10
    18f0:	a4 01       	movw	r20, r8
    18f2:	93 01       	movw	r18, r6
    18f4:	0e 94 7a 1f 	call	0x3ef4	; 0x3ef4 <__udivmodsi4>
    18f8:	c9 01       	movw	r24, r18
    18fa:	da 01       	movw	r26, r20
    18fc:	1c 01       	movw	r2, r24
    18fe:	2d 01       	movw	r4, r26
    1900:	c2 01       	movw	r24, r4
    1902:	b1 01       	movw	r22, r2
    1904:	2d 96       	adiw	r28, 0x0d	; 13
    1906:	2c ad       	ldd	r18, Y+60	; 0x3c
    1908:	3d ad       	ldd	r19, Y+61	; 0x3d
    190a:	4e ad       	ldd	r20, Y+62	; 0x3e
    190c:	5f ad       	ldd	r21, Y+63	; 0x3f
    190e:	2d 97       	sbiw	r28, 0x0d	; 13
    1910:	0e 94 40 1f 	call	0x3e80	; 0x3e80 <__mulsi3>
    1914:	9b 01       	movw	r18, r22
    1916:	ac 01       	movw	r20, r24
    1918:	87 01       	movw	r16, r14
    191a:	ff 24       	eor	r15, r15
    191c:	ee 24       	eor	r14, r14
    191e:	a9 a0       	ldd	r10, Y+33	; 0x21
    1920:	ba a0       	ldd	r11, Y+34	; 0x22
    1922:	cb a0       	ldd	r12, Y+35	; 0x23
    1924:	dc a0       	ldd	r13, Y+36	; 0x24
    1926:	c6 01       	movw	r24, r12
    1928:	aa 27       	eor	r26, r26
    192a:	bb 27       	eor	r27, r27
    192c:	57 01       	movw	r10, r14
    192e:	68 01       	movw	r12, r16
    1930:	a8 2a       	or	r10, r24
    1932:	b9 2a       	or	r11, r25
    1934:	ca 2a       	or	r12, r26
    1936:	db 2a       	or	r13, r27
    1938:	a2 16       	cp	r10, r18
    193a:	b3 06       	cpc	r11, r19
    193c:	c4 06       	cpc	r12, r20
    193e:	d5 06       	cpc	r13, r21
    1940:	00 f5       	brcc	.+64     	; 0x1982 <__umoddi3+0x9b8>
    1942:	08 94       	sec
    1944:	21 08       	sbc	r2, r1
    1946:	31 08       	sbc	r3, r1
    1948:	41 08       	sbc	r4, r1
    194a:	51 08       	sbc	r5, r1
    194c:	e9 a4       	ldd	r14, Y+41	; 0x29
    194e:	fa a4       	ldd	r15, Y+42	; 0x2a
    1950:	0b a5       	ldd	r16, Y+43	; 0x2b
    1952:	1c a5       	ldd	r17, Y+44	; 0x2c
    1954:	ae 0c       	add	r10, r14
    1956:	bf 1c       	adc	r11, r15
    1958:	c0 1e       	adc	r12, r16
    195a:	d1 1e       	adc	r13, r17
    195c:	ae 14       	cp	r10, r14
    195e:	bf 04       	cpc	r11, r15
    1960:	c0 06       	cpc	r12, r16
    1962:	d1 06       	cpc	r13, r17
    1964:	70 f0       	brcs	.+28     	; 0x1982 <__umoddi3+0x9b8>
    1966:	a2 16       	cp	r10, r18
    1968:	b3 06       	cpc	r11, r19
    196a:	c4 06       	cpc	r12, r20
    196c:	d5 06       	cpc	r13, r21
    196e:	48 f4       	brcc	.+18     	; 0x1982 <__umoddi3+0x9b8>
    1970:	08 94       	sec
    1972:	21 08       	sbc	r2, r1
    1974:	31 08       	sbc	r3, r1
    1976:	41 08       	sbc	r4, r1
    1978:	51 08       	sbc	r5, r1
    197a:	ae 0c       	add	r10, r14
    197c:	bf 1c       	adc	r11, r15
    197e:	c0 1e       	adc	r12, r16
    1980:	d1 1e       	adc	r13, r17
    1982:	a2 1a       	sub	r10, r18
    1984:	b3 0a       	sbc	r11, r19
    1986:	c4 0a       	sbc	r12, r20
    1988:	d5 0a       	sbc	r13, r21
    198a:	c6 01       	movw	r24, r12
    198c:	b5 01       	movw	r22, r10
    198e:	a4 01       	movw	r20, r8
    1990:	93 01       	movw	r18, r6
    1992:	0e 94 7a 1f 	call	0x3ef4	; 0x3ef4 <__udivmodsi4>
    1996:	7b 01       	movw	r14, r22
    1998:	8c 01       	movw	r16, r24
    199a:	c6 01       	movw	r24, r12
    199c:	b5 01       	movw	r22, r10
    199e:	a4 01       	movw	r20, r8
    19a0:	93 01       	movw	r18, r6
    19a2:	0e 94 7a 1f 	call	0x3ef4	; 0x3ef4 <__udivmodsi4>
    19a6:	c9 01       	movw	r24, r18
    19a8:	da 01       	movw	r26, r20
    19aa:	3c 01       	movw	r6, r24
    19ac:	4d 01       	movw	r8, r26
    19ae:	c4 01       	movw	r24, r8
    19b0:	b3 01       	movw	r22, r6
    19b2:	2d 96       	adiw	r28, 0x0d	; 13
    19b4:	2c ad       	ldd	r18, Y+60	; 0x3c
    19b6:	3d ad       	ldd	r19, Y+61	; 0x3d
    19b8:	4e ad       	ldd	r20, Y+62	; 0x3e
    19ba:	5f ad       	ldd	r21, Y+63	; 0x3f
    19bc:	2d 97       	sbiw	r28, 0x0d	; 13
    19be:	0e 94 40 1f 	call	0x3e80	; 0x3e80 <__mulsi3>
    19c2:	9b 01       	movw	r18, r22
    19c4:	ac 01       	movw	r20, r24
    19c6:	87 01       	movw	r16, r14
    19c8:	ff 24       	eor	r15, r15
    19ca:	ee 24       	eor	r14, r14
    19cc:	89 a1       	ldd	r24, Y+33	; 0x21
    19ce:	9a a1       	ldd	r25, Y+34	; 0x22
    19d0:	ab a1       	ldd	r26, Y+35	; 0x23
    19d2:	bc a1       	ldd	r27, Y+36	; 0x24
    19d4:	a0 70       	andi	r26, 0x00	; 0
    19d6:	b0 70       	andi	r27, 0x00	; 0
    19d8:	57 01       	movw	r10, r14
    19da:	68 01       	movw	r12, r16
    19dc:	a8 2a       	or	r10, r24
    19de:	b9 2a       	or	r11, r25
    19e0:	ca 2a       	or	r12, r26
    19e2:	db 2a       	or	r13, r27
    19e4:	a2 16       	cp	r10, r18
    19e6:	b3 06       	cpc	r11, r19
    19e8:	c4 06       	cpc	r12, r20
    19ea:	d5 06       	cpc	r13, r21
    19ec:	00 f5       	brcc	.+64     	; 0x1a2e <__umoddi3+0xa64>
    19ee:	08 94       	sec
    19f0:	61 08       	sbc	r6, r1
    19f2:	71 08       	sbc	r7, r1
    19f4:	81 08       	sbc	r8, r1
    19f6:	91 08       	sbc	r9, r1
    19f8:	69 a5       	ldd	r22, Y+41	; 0x29
    19fa:	7a a5       	ldd	r23, Y+42	; 0x2a
    19fc:	8b a5       	ldd	r24, Y+43	; 0x2b
    19fe:	9c a5       	ldd	r25, Y+44	; 0x2c
    1a00:	a6 0e       	add	r10, r22
    1a02:	b7 1e       	adc	r11, r23
    1a04:	c8 1e       	adc	r12, r24
    1a06:	d9 1e       	adc	r13, r25
    1a08:	a6 16       	cp	r10, r22
    1a0a:	b7 06       	cpc	r11, r23
    1a0c:	c8 06       	cpc	r12, r24
    1a0e:	d9 06       	cpc	r13, r25
    1a10:	70 f0       	brcs	.+28     	; 0x1a2e <__umoddi3+0xa64>
    1a12:	a2 16       	cp	r10, r18
    1a14:	b3 06       	cpc	r11, r19
    1a16:	c4 06       	cpc	r12, r20
    1a18:	d5 06       	cpc	r13, r21
    1a1a:	48 f4       	brcc	.+18     	; 0x1a2e <__umoddi3+0xa64>
    1a1c:	08 94       	sec
    1a1e:	61 08       	sbc	r6, r1
    1a20:	71 08       	sbc	r7, r1
    1a22:	81 08       	sbc	r8, r1
    1a24:	91 08       	sbc	r9, r1
    1a26:	a6 0e       	add	r10, r22
    1a28:	b7 1e       	adc	r11, r23
    1a2a:	c8 1e       	adc	r12, r24
    1a2c:	d9 1e       	adc	r13, r25
    1a2e:	d6 01       	movw	r26, r12
    1a30:	c5 01       	movw	r24, r10
    1a32:	82 1b       	sub	r24, r18
    1a34:	93 0b       	sbc	r25, r19
    1a36:	a4 0b       	sbc	r26, r20
    1a38:	b5 0b       	sbc	r27, r21
    1a3a:	89 8f       	std	Y+25, r24	; 0x19
    1a3c:	9a 8f       	std	Y+26, r25	; 0x1a
    1a3e:	ab 8f       	std	Y+27, r26	; 0x1b
    1a40:	bc 8f       	std	Y+28, r27	; 0x1c
    1a42:	d1 01       	movw	r26, r2
    1a44:	99 27       	eor	r25, r25
    1a46:	88 27       	eor	r24, r24
    1a48:	84 01       	movw	r16, r8
    1a4a:	73 01       	movw	r14, r6
    1a4c:	e8 2a       	or	r14, r24
    1a4e:	f9 2a       	or	r15, r25
    1a50:	0a 2b       	or	r16, r26
    1a52:	1b 2b       	or	r17, r27
    1a54:	4f ef       	ldi	r20, 0xFF	; 255
    1a56:	a4 2e       	mov	r10, r20
    1a58:	4f ef       	ldi	r20, 0xFF	; 255
    1a5a:	b4 2e       	mov	r11, r20
    1a5c:	c1 2c       	mov	r12, r1
    1a5e:	d1 2c       	mov	r13, r1
    1a60:	ae 20       	and	r10, r14
    1a62:	bf 20       	and	r11, r15
    1a64:	c0 22       	and	r12, r16
    1a66:	d1 22       	and	r13, r17
    1a68:	78 01       	movw	r14, r16
    1a6a:	00 27       	eor	r16, r16
    1a6c:	11 27       	eor	r17, r17
    1a6e:	6d a0       	ldd	r6, Y+37	; 0x25
    1a70:	7e a0       	ldd	r7, Y+38	; 0x26
    1a72:	8f a0       	ldd	r8, Y+39	; 0x27
    1a74:	98 a4       	ldd	r9, Y+40	; 0x28
    1a76:	4f ef       	ldi	r20, 0xFF	; 255
    1a78:	5f ef       	ldi	r21, 0xFF	; 255
    1a7a:	60 e0       	ldi	r22, 0x00	; 0
    1a7c:	70 e0       	ldi	r23, 0x00	; 0
    1a7e:	64 22       	and	r6, r20
    1a80:	75 22       	and	r7, r21
    1a82:	86 22       	and	r8, r22
    1a84:	97 22       	and	r9, r23
    1a86:	8d a1       	ldd	r24, Y+37	; 0x25
    1a88:	9e a1       	ldd	r25, Y+38	; 0x26
    1a8a:	af a1       	ldd	r26, Y+39	; 0x27
    1a8c:	b8 a5       	ldd	r27, Y+40	; 0x28
    1a8e:	bd 01       	movw	r22, r26
    1a90:	88 27       	eor	r24, r24
    1a92:	99 27       	eor	r25, r25
    1a94:	65 96       	adiw	r28, 0x15	; 21
    1a96:	6c af       	std	Y+60, r22	; 0x3c
    1a98:	7d af       	std	Y+61, r23	; 0x3d
    1a9a:	8e af       	std	Y+62, r24	; 0x3e
    1a9c:	9f af       	std	Y+63, r25	; 0x3f
    1a9e:	65 97       	sbiw	r28, 0x15	; 21
    1aa0:	c6 01       	movw	r24, r12
    1aa2:	b5 01       	movw	r22, r10
    1aa4:	a4 01       	movw	r20, r8
    1aa6:	93 01       	movw	r18, r6
    1aa8:	0e 94 40 1f 	call	0x3e80	; 0x3e80 <__mulsi3>
    1aac:	61 96       	adiw	r28, 0x11	; 17
    1aae:	6c af       	std	Y+60, r22	; 0x3c
    1ab0:	7d af       	std	Y+61, r23	; 0x3d
    1ab2:	8e af       	std	Y+62, r24	; 0x3e
    1ab4:	9f af       	std	Y+63, r25	; 0x3f
    1ab6:	61 97       	sbiw	r28, 0x11	; 17
    1ab8:	c6 01       	movw	r24, r12
    1aba:	b5 01       	movw	r22, r10
    1abc:	65 96       	adiw	r28, 0x15	; 21
    1abe:	2c ad       	ldd	r18, Y+60	; 0x3c
    1ac0:	3d ad       	ldd	r19, Y+61	; 0x3d
    1ac2:	4e ad       	ldd	r20, Y+62	; 0x3e
    1ac4:	5f ad       	ldd	r21, Y+63	; 0x3f
    1ac6:	65 97       	sbiw	r28, 0x15	; 21
    1ac8:	0e 94 40 1f 	call	0x3e80	; 0x3e80 <__mulsi3>
    1acc:	1b 01       	movw	r2, r22
    1ace:	2c 01       	movw	r4, r24
    1ad0:	c8 01       	movw	r24, r16
    1ad2:	b7 01       	movw	r22, r14
    1ad4:	a4 01       	movw	r20, r8
    1ad6:	93 01       	movw	r18, r6
    1ad8:	0e 94 40 1f 	call	0x3e80	; 0x3e80 <__mulsi3>
    1adc:	5b 01       	movw	r10, r22
    1ade:	6c 01       	movw	r12, r24
    1ae0:	c8 01       	movw	r24, r16
    1ae2:	b7 01       	movw	r22, r14
    1ae4:	65 96       	adiw	r28, 0x15	; 21
    1ae6:	2c ad       	ldd	r18, Y+60	; 0x3c
    1ae8:	3d ad       	ldd	r19, Y+61	; 0x3d
    1aea:	4e ad       	ldd	r20, Y+62	; 0x3e
    1aec:	5f ad       	ldd	r21, Y+63	; 0x3f
    1aee:	65 97       	sbiw	r28, 0x15	; 21
    1af0:	0e 94 40 1f 	call	0x3e80	; 0x3e80 <__mulsi3>
    1af4:	7b 01       	movw	r14, r22
    1af6:	8c 01       	movw	r16, r24
    1af8:	a6 01       	movw	r20, r12
    1afa:	95 01       	movw	r18, r10
    1afc:	22 0d       	add	r18, r2
    1afe:	33 1d       	adc	r19, r3
    1b00:	44 1d       	adc	r20, r4
    1b02:	55 1d       	adc	r21, r5
    1b04:	61 96       	adiw	r28, 0x11	; 17
    1b06:	6c ac       	ldd	r6, Y+60	; 0x3c
    1b08:	7d ac       	ldd	r7, Y+61	; 0x3d
    1b0a:	8e ac       	ldd	r8, Y+62	; 0x3e
    1b0c:	9f ac       	ldd	r9, Y+63	; 0x3f
    1b0e:	61 97       	sbiw	r28, 0x11	; 17
    1b10:	c4 01       	movw	r24, r8
    1b12:	aa 27       	eor	r26, r26
    1b14:	bb 27       	eor	r27, r27
    1b16:	28 0f       	add	r18, r24
    1b18:	39 1f       	adc	r19, r25
    1b1a:	4a 1f       	adc	r20, r26
    1b1c:	5b 1f       	adc	r21, r27
    1b1e:	2a 15       	cp	r18, r10
    1b20:	3b 05       	cpc	r19, r11
    1b22:	4c 05       	cpc	r20, r12
    1b24:	5d 05       	cpc	r21, r13
    1b26:	48 f4       	brcc	.+18     	; 0x1b3a <__umoddi3+0xb70>
    1b28:	81 2c       	mov	r8, r1
    1b2a:	91 2c       	mov	r9, r1
    1b2c:	e1 e0       	ldi	r30, 0x01	; 1
    1b2e:	ae 2e       	mov	r10, r30
    1b30:	b1 2c       	mov	r11, r1
    1b32:	e8 0c       	add	r14, r8
    1b34:	f9 1c       	adc	r15, r9
    1b36:	0a 1d       	adc	r16, r10
    1b38:	1b 1d       	adc	r17, r11
    1b3a:	ca 01       	movw	r24, r20
    1b3c:	aa 27       	eor	r26, r26
    1b3e:	bb 27       	eor	r27, r27
    1b40:	57 01       	movw	r10, r14
    1b42:	68 01       	movw	r12, r16
    1b44:	a8 0e       	add	r10, r24
    1b46:	b9 1e       	adc	r11, r25
    1b48:	ca 1e       	adc	r12, r26
    1b4a:	db 1e       	adc	r13, r27
    1b4c:	a9 01       	movw	r20, r18
    1b4e:	33 27       	eor	r19, r19
    1b50:	22 27       	eor	r18, r18
    1b52:	61 96       	adiw	r28, 0x11	; 17
    1b54:	8c ad       	ldd	r24, Y+60	; 0x3c
    1b56:	9d ad       	ldd	r25, Y+61	; 0x3d
    1b58:	ae ad       	ldd	r26, Y+62	; 0x3e
    1b5a:	bf ad       	ldd	r27, Y+63	; 0x3f
    1b5c:	61 97       	sbiw	r28, 0x11	; 17
    1b5e:	a0 70       	andi	r26, 0x00	; 0
    1b60:	b0 70       	andi	r27, 0x00	; 0
    1b62:	28 0f       	add	r18, r24
    1b64:	39 1f       	adc	r19, r25
    1b66:	4a 1f       	adc	r20, r26
    1b68:	5b 1f       	adc	r21, r27
    1b6a:	e9 8c       	ldd	r14, Y+25	; 0x19
    1b6c:	fa 8c       	ldd	r15, Y+26	; 0x1a
    1b6e:	0b 8d       	ldd	r16, Y+27	; 0x1b
    1b70:	1c 8d       	ldd	r17, Y+28	; 0x1c
    1b72:	ea 14       	cp	r14, r10
    1b74:	fb 04       	cpc	r15, r11
    1b76:	0c 05       	cpc	r16, r12
    1b78:	1d 05       	cpc	r17, r13
    1b7a:	70 f0       	brcs	.+28     	; 0x1b98 <__umoddi3+0xbce>
    1b7c:	ae 14       	cp	r10, r14
    1b7e:	bf 04       	cpc	r11, r15
    1b80:	c0 06       	cpc	r12, r16
    1b82:	d1 06       	cpc	r13, r17
    1b84:	69 f5       	brne	.+90     	; 0x1be0 <__umoddi3+0xc16>
    1b86:	6d 8d       	ldd	r22, Y+29	; 0x1d
    1b88:	7e 8d       	ldd	r23, Y+30	; 0x1e
    1b8a:	8f 8d       	ldd	r24, Y+31	; 0x1f
    1b8c:	98 a1       	ldd	r25, Y+32	; 0x20
    1b8e:	62 17       	cp	r22, r18
    1b90:	73 07       	cpc	r23, r19
    1b92:	84 07       	cpc	r24, r20
    1b94:	95 07       	cpc	r25, r21
    1b96:	20 f5       	brcc	.+72     	; 0x1be0 <__umoddi3+0xc16>
    1b98:	da 01       	movw	r26, r20
    1b9a:	c9 01       	movw	r24, r18
    1b9c:	6d a0       	ldd	r6, Y+37	; 0x25
    1b9e:	7e a0       	ldd	r7, Y+38	; 0x26
    1ba0:	8f a0       	ldd	r8, Y+39	; 0x27
    1ba2:	98 a4       	ldd	r9, Y+40	; 0x28
    1ba4:	86 19       	sub	r24, r6
    1ba6:	97 09       	sbc	r25, r7
    1ba8:	a8 09       	sbc	r26, r8
    1baa:	b9 09       	sbc	r27, r9
    1bac:	e9 a4       	ldd	r14, Y+41	; 0x29
    1bae:	fa a4       	ldd	r15, Y+42	; 0x2a
    1bb0:	0b a5       	ldd	r16, Y+43	; 0x2b
    1bb2:	1c a5       	ldd	r17, Y+44	; 0x2c
    1bb4:	ae 18       	sub	r10, r14
    1bb6:	bf 08       	sbc	r11, r15
    1bb8:	c0 0a       	sbc	r12, r16
    1bba:	d1 0a       	sbc	r13, r17
    1bbc:	ee 24       	eor	r14, r14
    1bbe:	ff 24       	eor	r15, r15
    1bc0:	87 01       	movw	r16, r14
    1bc2:	28 17       	cp	r18, r24
    1bc4:	39 07       	cpc	r19, r25
    1bc6:	4a 07       	cpc	r20, r26
    1bc8:	5b 07       	cpc	r21, r27
    1bca:	28 f4       	brcc	.+10     	; 0x1bd6 <__umoddi3+0xc0c>
    1bcc:	21 e0       	ldi	r18, 0x01	; 1
    1bce:	e2 2e       	mov	r14, r18
    1bd0:	f1 2c       	mov	r15, r1
    1bd2:	01 2d       	mov	r16, r1
    1bd4:	11 2d       	mov	r17, r1
    1bd6:	ae 18       	sub	r10, r14
    1bd8:	bf 08       	sbc	r11, r15
    1bda:	c0 0a       	sbc	r12, r16
    1bdc:	d1 0a       	sbc	r13, r17
    1bde:	02 c0       	rjmp	.+4      	; 0x1be4 <__umoddi3+0xc1a>
    1be0:	da 01       	movw	r26, r20
    1be2:	c9 01       	movw	r24, r18
    1be4:	6d 8c       	ldd	r6, Y+29	; 0x1d
    1be6:	7e 8c       	ldd	r7, Y+30	; 0x1e
    1be8:	8f 8c       	ldd	r8, Y+31	; 0x1f
    1bea:	98 a0       	ldd	r9, Y+32	; 0x20
    1bec:	68 1a       	sub	r6, r24
    1bee:	79 0a       	sbc	r7, r25
    1bf0:	8a 0a       	sbc	r8, r26
    1bf2:	9b 0a       	sbc	r9, r27
    1bf4:	49 8d       	ldd	r20, Y+25	; 0x19
    1bf6:	5a 8d       	ldd	r21, Y+26	; 0x1a
    1bf8:	6b 8d       	ldd	r22, Y+27	; 0x1b
    1bfa:	7c 8d       	ldd	r23, Y+28	; 0x1c
    1bfc:	4a 19       	sub	r20, r10
    1bfe:	5b 09       	sbc	r21, r11
    1c00:	6c 09       	sbc	r22, r12
    1c02:	7d 09       	sbc	r23, r13
    1c04:	5a 01       	movw	r10, r20
    1c06:	6b 01       	movw	r12, r22
    1c08:	22 24       	eor	r2, r2
    1c0a:	33 24       	eor	r3, r3
    1c0c:	21 01       	movw	r4, r2
    1c0e:	6d 8d       	ldd	r22, Y+29	; 0x1d
    1c10:	7e 8d       	ldd	r23, Y+30	; 0x1e
    1c12:	8f 8d       	ldd	r24, Y+31	; 0x1f
    1c14:	98 a1       	ldd	r25, Y+32	; 0x20
    1c16:	66 15       	cp	r22, r6
    1c18:	77 05       	cpc	r23, r7
    1c1a:	88 05       	cpc	r24, r8
    1c1c:	99 05       	cpc	r25, r9
    1c1e:	28 f4       	brcc	.+10     	; 0x1c2a <__umoddi3+0xc60>
    1c20:	81 e0       	ldi	r24, 0x01	; 1
    1c22:	28 2e       	mov	r2, r24
    1c24:	31 2c       	mov	r3, r1
    1c26:	41 2c       	mov	r4, r1
    1c28:	51 2c       	mov	r5, r1
    1c2a:	86 01       	movw	r16, r12
    1c2c:	75 01       	movw	r14, r10
    1c2e:	e2 18       	sub	r14, r2
    1c30:	f3 08       	sbc	r15, r3
    1c32:	04 09       	sbc	r16, r4
    1c34:	15 09       	sbc	r17, r5
    1c36:	a8 01       	movw	r20, r16
    1c38:	97 01       	movw	r18, r14
    1c3a:	66 96       	adiw	r28, 0x16	; 22
    1c3c:	0f ac       	ldd	r0, Y+63	; 0x3f
    1c3e:	66 97       	sbiw	r28, 0x16	; 22
    1c40:	04 c0       	rjmp	.+8      	; 0x1c4a <__umoddi3+0xc80>
    1c42:	22 0f       	add	r18, r18
    1c44:	33 1f       	adc	r19, r19
    1c46:	44 1f       	adc	r20, r20
    1c48:	55 1f       	adc	r21, r21
    1c4a:	0a 94       	dec	r0
    1c4c:	d2 f7       	brpl	.-12     	; 0x1c42 <__umoddi3+0xc78>
    1c4e:	d4 01       	movw	r26, r8
    1c50:	c3 01       	movw	r24, r6
    1c52:	67 96       	adiw	r28, 0x17	; 23
    1c54:	0f ac       	ldd	r0, Y+63	; 0x3f
    1c56:	67 97       	sbiw	r28, 0x17	; 23
    1c58:	04 c0       	rjmp	.+8      	; 0x1c62 <__umoddi3+0xc98>
    1c5a:	b6 95       	lsr	r27
    1c5c:	a7 95       	ror	r26
    1c5e:	97 95       	ror	r25
    1c60:	87 95       	ror	r24
    1c62:	0a 94       	dec	r0
    1c64:	d2 f7       	brpl	.-12     	; 0x1c5a <__umoddi3+0xc90>
    1c66:	28 2b       	or	r18, r24
    1c68:	39 2b       	or	r19, r25
    1c6a:	4a 2b       	or	r20, r26
    1c6c:	5b 2b       	or	r21, r27
    1c6e:	29 8b       	std	Y+17, r18	; 0x11
    1c70:	3a 8b       	std	Y+18, r19	; 0x12
    1c72:	4b 8b       	std	Y+19, r20	; 0x13
    1c74:	5c 8b       	std	Y+20, r21	; 0x14
    1c76:	67 96       	adiw	r28, 0x17	; 23
    1c78:	0f ac       	ldd	r0, Y+63	; 0x3f
    1c7a:	67 97       	sbiw	r28, 0x17	; 23
    1c7c:	04 c0       	rjmp	.+8      	; 0x1c86 <__umoddi3+0xcbc>
    1c7e:	16 95       	lsr	r17
    1c80:	07 95       	ror	r16
    1c82:	f7 94       	ror	r15
    1c84:	e7 94       	ror	r14
    1c86:	0a 94       	dec	r0
    1c88:	d2 f7       	brpl	.-12     	; 0x1c7e <__umoddi3+0xcb4>
    1c8a:	ed 8a       	std	Y+21, r14	; 0x15
    1c8c:	fe 8a       	std	Y+22, r15	; 0x16
    1c8e:	0f 8b       	std	Y+23, r16	; 0x17
    1c90:	18 8f       	std	Y+24, r17	; 0x18
    1c92:	3a 89       	ldd	r19, Y+18	; 0x12
    1c94:	4b 89       	ldd	r20, Y+19	; 0x13
    1c96:	5c 89       	ldd	r21, Y+20	; 0x14
    1c98:	6e 2d       	mov	r22, r14
    1c9a:	7e 89       	ldd	r23, Y+22	; 0x16
    1c9c:	8f 89       	ldd	r24, Y+23	; 0x17
    1c9e:	98 8d       	ldd	r25, Y+24	; 0x18
    1ca0:	c5 5a       	subi	r28, 0xA5	; 165
    1ca2:	df 4f       	sbci	r29, 0xFF	; 255
    1ca4:	e2 e1       	ldi	r30, 0x12	; 18
    1ca6:	0c 94 b8 1f 	jmp	0x3f70	; 0x3f70 <__epilogue_restores__>

00001caa <__mulsf3>:
    1caa:	a0 e2       	ldi	r26, 0x20	; 32
    1cac:	b0 e0       	ldi	r27, 0x00	; 0
    1cae:	eb e5       	ldi	r30, 0x5B	; 91
    1cb0:	fe e0       	ldi	r31, 0x0E	; 14
    1cb2:	0c 94 9c 1f 	jmp	0x3f38	; 0x3f38 <__prologue_saves__>
    1cb6:	69 83       	std	Y+1, r22	; 0x01
    1cb8:	7a 83       	std	Y+2, r23	; 0x02
    1cba:	8b 83       	std	Y+3, r24	; 0x03
    1cbc:	9c 83       	std	Y+4, r25	; 0x04
    1cbe:	2d 83       	std	Y+5, r18	; 0x05
    1cc0:	3e 83       	std	Y+6, r19	; 0x06
    1cc2:	4f 83       	std	Y+7, r20	; 0x07
    1cc4:	58 87       	std	Y+8, r21	; 0x08
    1cc6:	ce 01       	movw	r24, r28
    1cc8:	01 96       	adiw	r24, 0x01	; 1
    1cca:	be 01       	movw	r22, r28
    1ccc:	67 5f       	subi	r22, 0xF7	; 247
    1cce:	7f 4f       	sbci	r23, 0xFF	; 255
    1cd0:	0e 94 24 12 	call	0x2448	; 0x2448 <__unpack_f>
    1cd4:	ce 01       	movw	r24, r28
    1cd6:	05 96       	adiw	r24, 0x05	; 5
    1cd8:	be 01       	movw	r22, r28
    1cda:	6f 5e       	subi	r22, 0xEF	; 239
    1cdc:	7f 4f       	sbci	r23, 0xFF	; 255
    1cde:	0e 94 24 12 	call	0x2448	; 0x2448 <__unpack_f>
    1ce2:	99 85       	ldd	r25, Y+9	; 0x09
    1ce4:	92 30       	cpi	r25, 0x02	; 2
    1ce6:	88 f0       	brcs	.+34     	; 0x1d0a <__mulsf3+0x60>
    1ce8:	89 89       	ldd	r24, Y+17	; 0x11
    1cea:	82 30       	cpi	r24, 0x02	; 2
    1cec:	c8 f0       	brcs	.+50     	; 0x1d20 <__mulsf3+0x76>
    1cee:	94 30       	cpi	r25, 0x04	; 4
    1cf0:	19 f4       	brne	.+6      	; 0x1cf8 <__mulsf3+0x4e>
    1cf2:	82 30       	cpi	r24, 0x02	; 2
    1cf4:	51 f4       	brne	.+20     	; 0x1d0a <__mulsf3+0x60>
    1cf6:	04 c0       	rjmp	.+8      	; 0x1d00 <__mulsf3+0x56>
    1cf8:	84 30       	cpi	r24, 0x04	; 4
    1cfa:	29 f4       	brne	.+10     	; 0x1d06 <__mulsf3+0x5c>
    1cfc:	92 30       	cpi	r25, 0x02	; 2
    1cfe:	81 f4       	brne	.+32     	; 0x1d20 <__mulsf3+0x76>
    1d00:	80 e6       	ldi	r24, 0x60	; 96
    1d02:	90 e0       	ldi	r25, 0x00	; 0
    1d04:	c6 c0       	rjmp	.+396    	; 0x1e92 <__mulsf3+0x1e8>
    1d06:	92 30       	cpi	r25, 0x02	; 2
    1d08:	49 f4       	brne	.+18     	; 0x1d1c <__mulsf3+0x72>
    1d0a:	20 e0       	ldi	r18, 0x00	; 0
    1d0c:	9a 85       	ldd	r25, Y+10	; 0x0a
    1d0e:	8a 89       	ldd	r24, Y+18	; 0x12
    1d10:	98 13       	cpse	r25, r24
    1d12:	21 e0       	ldi	r18, 0x01	; 1
    1d14:	2a 87       	std	Y+10, r18	; 0x0a
    1d16:	ce 01       	movw	r24, r28
    1d18:	09 96       	adiw	r24, 0x09	; 9
    1d1a:	bb c0       	rjmp	.+374    	; 0x1e92 <__mulsf3+0x1e8>
    1d1c:	82 30       	cpi	r24, 0x02	; 2
    1d1e:	49 f4       	brne	.+18     	; 0x1d32 <__mulsf3+0x88>
    1d20:	20 e0       	ldi	r18, 0x00	; 0
    1d22:	9a 85       	ldd	r25, Y+10	; 0x0a
    1d24:	8a 89       	ldd	r24, Y+18	; 0x12
    1d26:	98 13       	cpse	r25, r24
    1d28:	21 e0       	ldi	r18, 0x01	; 1
    1d2a:	2a 8b       	std	Y+18, r18	; 0x12
    1d2c:	ce 01       	movw	r24, r28
    1d2e:	41 96       	adiw	r24, 0x11	; 17
    1d30:	b0 c0       	rjmp	.+352    	; 0x1e92 <__mulsf3+0x1e8>
    1d32:	2d 84       	ldd	r2, Y+13	; 0x0d
    1d34:	3e 84       	ldd	r3, Y+14	; 0x0e
    1d36:	4f 84       	ldd	r4, Y+15	; 0x0f
    1d38:	58 88       	ldd	r5, Y+16	; 0x10
    1d3a:	6d 88       	ldd	r6, Y+21	; 0x15
    1d3c:	7e 88       	ldd	r7, Y+22	; 0x16
    1d3e:	8f 88       	ldd	r8, Y+23	; 0x17
    1d40:	98 8c       	ldd	r9, Y+24	; 0x18
    1d42:	ee 24       	eor	r14, r14
    1d44:	ff 24       	eor	r15, r15
    1d46:	87 01       	movw	r16, r14
    1d48:	aa 24       	eor	r10, r10
    1d4a:	bb 24       	eor	r11, r11
    1d4c:	65 01       	movw	r12, r10
    1d4e:	40 e0       	ldi	r20, 0x00	; 0
    1d50:	50 e0       	ldi	r21, 0x00	; 0
    1d52:	60 e0       	ldi	r22, 0x00	; 0
    1d54:	70 e0       	ldi	r23, 0x00	; 0
    1d56:	e0 e0       	ldi	r30, 0x00	; 0
    1d58:	f0 e0       	ldi	r31, 0x00	; 0
    1d5a:	c1 01       	movw	r24, r2
    1d5c:	81 70       	andi	r24, 0x01	; 1
    1d5e:	90 70       	andi	r25, 0x00	; 0
    1d60:	89 2b       	or	r24, r25
    1d62:	e9 f0       	breq	.+58     	; 0x1d9e <__mulsf3+0xf4>
    1d64:	e6 0c       	add	r14, r6
    1d66:	f7 1c       	adc	r15, r7
    1d68:	08 1d       	adc	r16, r8
    1d6a:	19 1d       	adc	r17, r9
    1d6c:	9a 01       	movw	r18, r20
    1d6e:	ab 01       	movw	r20, r22
    1d70:	2a 0d       	add	r18, r10
    1d72:	3b 1d       	adc	r19, r11
    1d74:	4c 1d       	adc	r20, r12
    1d76:	5d 1d       	adc	r21, r13
    1d78:	80 e0       	ldi	r24, 0x00	; 0
    1d7a:	90 e0       	ldi	r25, 0x00	; 0
    1d7c:	a0 e0       	ldi	r26, 0x00	; 0
    1d7e:	b0 e0       	ldi	r27, 0x00	; 0
    1d80:	e6 14       	cp	r14, r6
    1d82:	f7 04       	cpc	r15, r7
    1d84:	08 05       	cpc	r16, r8
    1d86:	19 05       	cpc	r17, r9
    1d88:	20 f4       	brcc	.+8      	; 0x1d92 <__mulsf3+0xe8>
    1d8a:	81 e0       	ldi	r24, 0x01	; 1
    1d8c:	90 e0       	ldi	r25, 0x00	; 0
    1d8e:	a0 e0       	ldi	r26, 0x00	; 0
    1d90:	b0 e0       	ldi	r27, 0x00	; 0
    1d92:	ba 01       	movw	r22, r20
    1d94:	a9 01       	movw	r20, r18
    1d96:	48 0f       	add	r20, r24
    1d98:	59 1f       	adc	r21, r25
    1d9a:	6a 1f       	adc	r22, r26
    1d9c:	7b 1f       	adc	r23, r27
    1d9e:	aa 0c       	add	r10, r10
    1da0:	bb 1c       	adc	r11, r11
    1da2:	cc 1c       	adc	r12, r12
    1da4:	dd 1c       	adc	r13, r13
    1da6:	97 fe       	sbrs	r9, 7
    1da8:	08 c0       	rjmp	.+16     	; 0x1dba <__mulsf3+0x110>
    1daa:	81 e0       	ldi	r24, 0x01	; 1
    1dac:	90 e0       	ldi	r25, 0x00	; 0
    1dae:	a0 e0       	ldi	r26, 0x00	; 0
    1db0:	b0 e0       	ldi	r27, 0x00	; 0
    1db2:	a8 2a       	or	r10, r24
    1db4:	b9 2a       	or	r11, r25
    1db6:	ca 2a       	or	r12, r26
    1db8:	db 2a       	or	r13, r27
    1dba:	31 96       	adiw	r30, 0x01	; 1
    1dbc:	e0 32       	cpi	r30, 0x20	; 32
    1dbe:	f1 05       	cpc	r31, r1
    1dc0:	49 f0       	breq	.+18     	; 0x1dd4 <__mulsf3+0x12a>
    1dc2:	66 0c       	add	r6, r6
    1dc4:	77 1c       	adc	r7, r7
    1dc6:	88 1c       	adc	r8, r8
    1dc8:	99 1c       	adc	r9, r9
    1dca:	56 94       	lsr	r5
    1dcc:	47 94       	ror	r4
    1dce:	37 94       	ror	r3
    1dd0:	27 94       	ror	r2
    1dd2:	c3 cf       	rjmp	.-122    	; 0x1d5a <__mulsf3+0xb0>
    1dd4:	fa 85       	ldd	r31, Y+10	; 0x0a
    1dd6:	ea 89       	ldd	r30, Y+18	; 0x12
    1dd8:	2b 89       	ldd	r18, Y+19	; 0x13
    1dda:	3c 89       	ldd	r19, Y+20	; 0x14
    1ddc:	8b 85       	ldd	r24, Y+11	; 0x0b
    1dde:	9c 85       	ldd	r25, Y+12	; 0x0c
    1de0:	28 0f       	add	r18, r24
    1de2:	39 1f       	adc	r19, r25
    1de4:	2e 5f       	subi	r18, 0xFE	; 254
    1de6:	3f 4f       	sbci	r19, 0xFF	; 255
    1de8:	17 c0       	rjmp	.+46     	; 0x1e18 <__mulsf3+0x16e>
    1dea:	ca 01       	movw	r24, r20
    1dec:	81 70       	andi	r24, 0x01	; 1
    1dee:	90 70       	andi	r25, 0x00	; 0
    1df0:	89 2b       	or	r24, r25
    1df2:	61 f0       	breq	.+24     	; 0x1e0c <__mulsf3+0x162>
    1df4:	16 95       	lsr	r17
    1df6:	07 95       	ror	r16
    1df8:	f7 94       	ror	r15
    1dfa:	e7 94       	ror	r14
    1dfc:	80 e0       	ldi	r24, 0x00	; 0
    1dfe:	90 e0       	ldi	r25, 0x00	; 0
    1e00:	a0 e0       	ldi	r26, 0x00	; 0
    1e02:	b0 e8       	ldi	r27, 0x80	; 128
    1e04:	e8 2a       	or	r14, r24
    1e06:	f9 2a       	or	r15, r25
    1e08:	0a 2b       	or	r16, r26
    1e0a:	1b 2b       	or	r17, r27
    1e0c:	76 95       	lsr	r23
    1e0e:	67 95       	ror	r22
    1e10:	57 95       	ror	r21
    1e12:	47 95       	ror	r20
    1e14:	2f 5f       	subi	r18, 0xFF	; 255
    1e16:	3f 4f       	sbci	r19, 0xFF	; 255
    1e18:	77 fd       	sbrc	r23, 7
    1e1a:	e7 cf       	rjmp	.-50     	; 0x1dea <__mulsf3+0x140>
    1e1c:	0c c0       	rjmp	.+24     	; 0x1e36 <__mulsf3+0x18c>
    1e1e:	44 0f       	add	r20, r20
    1e20:	55 1f       	adc	r21, r21
    1e22:	66 1f       	adc	r22, r22
    1e24:	77 1f       	adc	r23, r23
    1e26:	17 fd       	sbrc	r17, 7
    1e28:	41 60       	ori	r20, 0x01	; 1
    1e2a:	ee 0c       	add	r14, r14
    1e2c:	ff 1c       	adc	r15, r15
    1e2e:	00 1f       	adc	r16, r16
    1e30:	11 1f       	adc	r17, r17
    1e32:	21 50       	subi	r18, 0x01	; 1
    1e34:	30 40       	sbci	r19, 0x00	; 0
    1e36:	40 30       	cpi	r20, 0x00	; 0
    1e38:	90 e0       	ldi	r25, 0x00	; 0
    1e3a:	59 07       	cpc	r21, r25
    1e3c:	90 e0       	ldi	r25, 0x00	; 0
    1e3e:	69 07       	cpc	r22, r25
    1e40:	90 e4       	ldi	r25, 0x40	; 64
    1e42:	79 07       	cpc	r23, r25
    1e44:	60 f3       	brcs	.-40     	; 0x1e1e <__mulsf3+0x174>
    1e46:	2b 8f       	std	Y+27, r18	; 0x1b
    1e48:	3c 8f       	std	Y+28, r19	; 0x1c
    1e4a:	db 01       	movw	r26, r22
    1e4c:	ca 01       	movw	r24, r20
    1e4e:	8f 77       	andi	r24, 0x7F	; 127
    1e50:	90 70       	andi	r25, 0x00	; 0
    1e52:	a0 70       	andi	r26, 0x00	; 0
    1e54:	b0 70       	andi	r27, 0x00	; 0
    1e56:	80 34       	cpi	r24, 0x40	; 64
    1e58:	91 05       	cpc	r25, r1
    1e5a:	a1 05       	cpc	r26, r1
    1e5c:	b1 05       	cpc	r27, r1
    1e5e:	61 f4       	brne	.+24     	; 0x1e78 <__mulsf3+0x1ce>
    1e60:	47 fd       	sbrc	r20, 7
    1e62:	0a c0       	rjmp	.+20     	; 0x1e78 <__mulsf3+0x1ce>
    1e64:	e1 14       	cp	r14, r1
    1e66:	f1 04       	cpc	r15, r1
    1e68:	01 05       	cpc	r16, r1
    1e6a:	11 05       	cpc	r17, r1
    1e6c:	29 f0       	breq	.+10     	; 0x1e78 <__mulsf3+0x1ce>
    1e6e:	40 5c       	subi	r20, 0xC0	; 192
    1e70:	5f 4f       	sbci	r21, 0xFF	; 255
    1e72:	6f 4f       	sbci	r22, 0xFF	; 255
    1e74:	7f 4f       	sbci	r23, 0xFF	; 255
    1e76:	40 78       	andi	r20, 0x80	; 128
    1e78:	1a 8e       	std	Y+26, r1	; 0x1a
    1e7a:	fe 17       	cp	r31, r30
    1e7c:	11 f0       	breq	.+4      	; 0x1e82 <__mulsf3+0x1d8>
    1e7e:	81 e0       	ldi	r24, 0x01	; 1
    1e80:	8a 8f       	std	Y+26, r24	; 0x1a
    1e82:	4d 8f       	std	Y+29, r20	; 0x1d
    1e84:	5e 8f       	std	Y+30, r21	; 0x1e
    1e86:	6f 8f       	std	Y+31, r22	; 0x1f
    1e88:	78 a3       	std	Y+32, r23	; 0x20
    1e8a:	83 e0       	ldi	r24, 0x03	; 3
    1e8c:	89 8f       	std	Y+25, r24	; 0x19
    1e8e:	ce 01       	movw	r24, r28
    1e90:	49 96       	adiw	r24, 0x19	; 25
    1e92:	0e 94 4f 11 	call	0x229e	; 0x229e <__pack_f>
    1e96:	a0 96       	adiw	r28, 0x20	; 32
    1e98:	e2 e1       	ldi	r30, 0x12	; 18
    1e9a:	0c 94 b8 1f 	jmp	0x3f70	; 0x3f70 <__epilogue_restores__>

00001e9e <__divsf3>:
    1e9e:	a8 e1       	ldi	r26, 0x18	; 24
    1ea0:	b0 e0       	ldi	r27, 0x00	; 0
    1ea2:	e5 e5       	ldi	r30, 0x55	; 85
    1ea4:	ff e0       	ldi	r31, 0x0F	; 15
    1ea6:	0c 94 a4 1f 	jmp	0x3f48	; 0x3f48 <__prologue_saves__+0x10>
    1eaa:	69 83       	std	Y+1, r22	; 0x01
    1eac:	7a 83       	std	Y+2, r23	; 0x02
    1eae:	8b 83       	std	Y+3, r24	; 0x03
    1eb0:	9c 83       	std	Y+4, r25	; 0x04
    1eb2:	2d 83       	std	Y+5, r18	; 0x05
    1eb4:	3e 83       	std	Y+6, r19	; 0x06
    1eb6:	4f 83       	std	Y+7, r20	; 0x07
    1eb8:	58 87       	std	Y+8, r21	; 0x08
    1eba:	b9 e0       	ldi	r27, 0x09	; 9
    1ebc:	eb 2e       	mov	r14, r27
    1ebe:	f1 2c       	mov	r15, r1
    1ec0:	ec 0e       	add	r14, r28
    1ec2:	fd 1e       	adc	r15, r29
    1ec4:	ce 01       	movw	r24, r28
    1ec6:	01 96       	adiw	r24, 0x01	; 1
    1ec8:	b7 01       	movw	r22, r14
    1eca:	0e 94 24 12 	call	0x2448	; 0x2448 <__unpack_f>
    1ece:	8e 01       	movw	r16, r28
    1ed0:	0f 5e       	subi	r16, 0xEF	; 239
    1ed2:	1f 4f       	sbci	r17, 0xFF	; 255
    1ed4:	ce 01       	movw	r24, r28
    1ed6:	05 96       	adiw	r24, 0x05	; 5
    1ed8:	b8 01       	movw	r22, r16
    1eda:	0e 94 24 12 	call	0x2448	; 0x2448 <__unpack_f>
    1ede:	29 85       	ldd	r18, Y+9	; 0x09
    1ee0:	22 30       	cpi	r18, 0x02	; 2
    1ee2:	08 f4       	brcc	.+2      	; 0x1ee6 <__divsf3+0x48>
    1ee4:	7e c0       	rjmp	.+252    	; 0x1fe2 <__divsf3+0x144>
    1ee6:	39 89       	ldd	r19, Y+17	; 0x11
    1ee8:	32 30       	cpi	r19, 0x02	; 2
    1eea:	10 f4       	brcc	.+4      	; 0x1ef0 <__divsf3+0x52>
    1eec:	b8 01       	movw	r22, r16
    1eee:	7c c0       	rjmp	.+248    	; 0x1fe8 <__divsf3+0x14a>
    1ef0:	8a 85       	ldd	r24, Y+10	; 0x0a
    1ef2:	9a 89       	ldd	r25, Y+18	; 0x12
    1ef4:	89 27       	eor	r24, r25
    1ef6:	8a 87       	std	Y+10, r24	; 0x0a
    1ef8:	24 30       	cpi	r18, 0x04	; 4
    1efa:	11 f0       	breq	.+4      	; 0x1f00 <__divsf3+0x62>
    1efc:	22 30       	cpi	r18, 0x02	; 2
    1efe:	31 f4       	brne	.+12     	; 0x1f0c <__divsf3+0x6e>
    1f00:	23 17       	cp	r18, r19
    1f02:	09 f0       	breq	.+2      	; 0x1f06 <__divsf3+0x68>
    1f04:	6e c0       	rjmp	.+220    	; 0x1fe2 <__divsf3+0x144>
    1f06:	60 e6       	ldi	r22, 0x60	; 96
    1f08:	70 e0       	ldi	r23, 0x00	; 0
    1f0a:	6e c0       	rjmp	.+220    	; 0x1fe8 <__divsf3+0x14a>
    1f0c:	34 30       	cpi	r19, 0x04	; 4
    1f0e:	39 f4       	brne	.+14     	; 0x1f1e <__divsf3+0x80>
    1f10:	1d 86       	std	Y+13, r1	; 0x0d
    1f12:	1e 86       	std	Y+14, r1	; 0x0e
    1f14:	1f 86       	std	Y+15, r1	; 0x0f
    1f16:	18 8a       	std	Y+16, r1	; 0x10
    1f18:	1c 86       	std	Y+12, r1	; 0x0c
    1f1a:	1b 86       	std	Y+11, r1	; 0x0b
    1f1c:	04 c0       	rjmp	.+8      	; 0x1f26 <__divsf3+0x88>
    1f1e:	32 30       	cpi	r19, 0x02	; 2
    1f20:	21 f4       	brne	.+8      	; 0x1f2a <__divsf3+0x8c>
    1f22:	84 e0       	ldi	r24, 0x04	; 4
    1f24:	89 87       	std	Y+9, r24	; 0x09
    1f26:	b7 01       	movw	r22, r14
    1f28:	5f c0       	rjmp	.+190    	; 0x1fe8 <__divsf3+0x14a>
    1f2a:	2b 85       	ldd	r18, Y+11	; 0x0b
    1f2c:	3c 85       	ldd	r19, Y+12	; 0x0c
    1f2e:	8b 89       	ldd	r24, Y+19	; 0x13
    1f30:	9c 89       	ldd	r25, Y+20	; 0x14
    1f32:	28 1b       	sub	r18, r24
    1f34:	39 0b       	sbc	r19, r25
    1f36:	3c 87       	std	Y+12, r19	; 0x0c
    1f38:	2b 87       	std	Y+11, r18	; 0x0b
    1f3a:	ed 84       	ldd	r14, Y+13	; 0x0d
    1f3c:	fe 84       	ldd	r15, Y+14	; 0x0e
    1f3e:	0f 85       	ldd	r16, Y+15	; 0x0f
    1f40:	18 89       	ldd	r17, Y+16	; 0x10
    1f42:	ad 88       	ldd	r10, Y+21	; 0x15
    1f44:	be 88       	ldd	r11, Y+22	; 0x16
    1f46:	cf 88       	ldd	r12, Y+23	; 0x17
    1f48:	d8 8c       	ldd	r13, Y+24	; 0x18
    1f4a:	ea 14       	cp	r14, r10
    1f4c:	fb 04       	cpc	r15, r11
    1f4e:	0c 05       	cpc	r16, r12
    1f50:	1d 05       	cpc	r17, r13
    1f52:	40 f4       	brcc	.+16     	; 0x1f64 <__divsf3+0xc6>
    1f54:	ee 0c       	add	r14, r14
    1f56:	ff 1c       	adc	r15, r15
    1f58:	00 1f       	adc	r16, r16
    1f5a:	11 1f       	adc	r17, r17
    1f5c:	21 50       	subi	r18, 0x01	; 1
    1f5e:	30 40       	sbci	r19, 0x00	; 0
    1f60:	3c 87       	std	Y+12, r19	; 0x0c
    1f62:	2b 87       	std	Y+11, r18	; 0x0b
    1f64:	20 e0       	ldi	r18, 0x00	; 0
    1f66:	30 e0       	ldi	r19, 0x00	; 0
    1f68:	40 e0       	ldi	r20, 0x00	; 0
    1f6a:	50 e0       	ldi	r21, 0x00	; 0
    1f6c:	80 e0       	ldi	r24, 0x00	; 0
    1f6e:	90 e0       	ldi	r25, 0x00	; 0
    1f70:	a0 e0       	ldi	r26, 0x00	; 0
    1f72:	b0 e4       	ldi	r27, 0x40	; 64
    1f74:	60 e0       	ldi	r22, 0x00	; 0
    1f76:	70 e0       	ldi	r23, 0x00	; 0
    1f78:	ea 14       	cp	r14, r10
    1f7a:	fb 04       	cpc	r15, r11
    1f7c:	0c 05       	cpc	r16, r12
    1f7e:	1d 05       	cpc	r17, r13
    1f80:	40 f0       	brcs	.+16     	; 0x1f92 <__divsf3+0xf4>
    1f82:	28 2b       	or	r18, r24
    1f84:	39 2b       	or	r19, r25
    1f86:	4a 2b       	or	r20, r26
    1f88:	5b 2b       	or	r21, r27
    1f8a:	ea 18       	sub	r14, r10
    1f8c:	fb 08       	sbc	r15, r11
    1f8e:	0c 09       	sbc	r16, r12
    1f90:	1d 09       	sbc	r17, r13
    1f92:	b6 95       	lsr	r27
    1f94:	a7 95       	ror	r26
    1f96:	97 95       	ror	r25
    1f98:	87 95       	ror	r24
    1f9a:	ee 0c       	add	r14, r14
    1f9c:	ff 1c       	adc	r15, r15
    1f9e:	00 1f       	adc	r16, r16
    1fa0:	11 1f       	adc	r17, r17
    1fa2:	6f 5f       	subi	r22, 0xFF	; 255
    1fa4:	7f 4f       	sbci	r23, 0xFF	; 255
    1fa6:	6f 31       	cpi	r22, 0x1F	; 31
    1fa8:	71 05       	cpc	r23, r1
    1faa:	31 f7       	brne	.-52     	; 0x1f78 <__divsf3+0xda>
    1fac:	da 01       	movw	r26, r20
    1fae:	c9 01       	movw	r24, r18
    1fb0:	8f 77       	andi	r24, 0x7F	; 127
    1fb2:	90 70       	andi	r25, 0x00	; 0
    1fb4:	a0 70       	andi	r26, 0x00	; 0
    1fb6:	b0 70       	andi	r27, 0x00	; 0
    1fb8:	80 34       	cpi	r24, 0x40	; 64
    1fba:	91 05       	cpc	r25, r1
    1fbc:	a1 05       	cpc	r26, r1
    1fbe:	b1 05       	cpc	r27, r1
    1fc0:	61 f4       	brne	.+24     	; 0x1fda <__divsf3+0x13c>
    1fc2:	27 fd       	sbrc	r18, 7
    1fc4:	0a c0       	rjmp	.+20     	; 0x1fda <__divsf3+0x13c>
    1fc6:	e1 14       	cp	r14, r1
    1fc8:	f1 04       	cpc	r15, r1
    1fca:	01 05       	cpc	r16, r1
    1fcc:	11 05       	cpc	r17, r1
    1fce:	29 f0       	breq	.+10     	; 0x1fda <__divsf3+0x13c>
    1fd0:	20 5c       	subi	r18, 0xC0	; 192
    1fd2:	3f 4f       	sbci	r19, 0xFF	; 255
    1fd4:	4f 4f       	sbci	r20, 0xFF	; 255
    1fd6:	5f 4f       	sbci	r21, 0xFF	; 255
    1fd8:	20 78       	andi	r18, 0x80	; 128
    1fda:	2d 87       	std	Y+13, r18	; 0x0d
    1fdc:	3e 87       	std	Y+14, r19	; 0x0e
    1fde:	4f 87       	std	Y+15, r20	; 0x0f
    1fe0:	58 8b       	std	Y+16, r21	; 0x10
    1fe2:	be 01       	movw	r22, r28
    1fe4:	67 5f       	subi	r22, 0xF7	; 247
    1fe6:	7f 4f       	sbci	r23, 0xFF	; 255
    1fe8:	cb 01       	movw	r24, r22
    1fea:	0e 94 4f 11 	call	0x229e	; 0x229e <__pack_f>
    1fee:	68 96       	adiw	r28, 0x18	; 24
    1ff0:	ea e0       	ldi	r30, 0x0A	; 10
    1ff2:	0c 94 c0 1f 	jmp	0x3f80	; 0x3f80 <__epilogue_restores__+0x10>

00001ff6 <__gesf2>:
    1ff6:	a8 e1       	ldi	r26, 0x18	; 24
    1ff8:	b0 e0       	ldi	r27, 0x00	; 0
    1ffa:	e1 e0       	ldi	r30, 0x01	; 1
    1ffc:	f0 e1       	ldi	r31, 0x10	; 16
    1ffe:	0c 94 a8 1f 	jmp	0x3f50	; 0x3f50 <__prologue_saves__+0x18>
    2002:	69 83       	std	Y+1, r22	; 0x01
    2004:	7a 83       	std	Y+2, r23	; 0x02
    2006:	8b 83       	std	Y+3, r24	; 0x03
    2008:	9c 83       	std	Y+4, r25	; 0x04
    200a:	2d 83       	std	Y+5, r18	; 0x05
    200c:	3e 83       	std	Y+6, r19	; 0x06
    200e:	4f 83       	std	Y+7, r20	; 0x07
    2010:	58 87       	std	Y+8, r21	; 0x08
    2012:	89 e0       	ldi	r24, 0x09	; 9
    2014:	e8 2e       	mov	r14, r24
    2016:	f1 2c       	mov	r15, r1
    2018:	ec 0e       	add	r14, r28
    201a:	fd 1e       	adc	r15, r29
    201c:	ce 01       	movw	r24, r28
    201e:	01 96       	adiw	r24, 0x01	; 1
    2020:	b7 01       	movw	r22, r14
    2022:	0e 94 24 12 	call	0x2448	; 0x2448 <__unpack_f>
    2026:	8e 01       	movw	r16, r28
    2028:	0f 5e       	subi	r16, 0xEF	; 239
    202a:	1f 4f       	sbci	r17, 0xFF	; 255
    202c:	ce 01       	movw	r24, r28
    202e:	05 96       	adiw	r24, 0x05	; 5
    2030:	b8 01       	movw	r22, r16
    2032:	0e 94 24 12 	call	0x2448	; 0x2448 <__unpack_f>
    2036:	89 85       	ldd	r24, Y+9	; 0x09
    2038:	82 30       	cpi	r24, 0x02	; 2
    203a:	40 f0       	brcs	.+16     	; 0x204c <__gesf2+0x56>
    203c:	89 89       	ldd	r24, Y+17	; 0x11
    203e:	82 30       	cpi	r24, 0x02	; 2
    2040:	28 f0       	brcs	.+10     	; 0x204c <__gesf2+0x56>
    2042:	c7 01       	movw	r24, r14
    2044:	b8 01       	movw	r22, r16
    2046:	0e 94 46 14 	call	0x288c	; 0x288c <__fpcmp_parts_f>
    204a:	01 c0       	rjmp	.+2      	; 0x204e <__gesf2+0x58>
    204c:	8f ef       	ldi	r24, 0xFF	; 255
    204e:	68 96       	adiw	r28, 0x18	; 24
    2050:	e6 e0       	ldi	r30, 0x06	; 6
    2052:	0c 94 c4 1f 	jmp	0x3f88	; 0x3f88 <__epilogue_restores__+0x18>

00002056 <__ltsf2>:
    2056:	a8 e1       	ldi	r26, 0x18	; 24
    2058:	b0 e0       	ldi	r27, 0x00	; 0
    205a:	e1 e3       	ldi	r30, 0x31	; 49
    205c:	f0 e1       	ldi	r31, 0x10	; 16
    205e:	0c 94 a8 1f 	jmp	0x3f50	; 0x3f50 <__prologue_saves__+0x18>
    2062:	69 83       	std	Y+1, r22	; 0x01
    2064:	7a 83       	std	Y+2, r23	; 0x02
    2066:	8b 83       	std	Y+3, r24	; 0x03
    2068:	9c 83       	std	Y+4, r25	; 0x04
    206a:	2d 83       	std	Y+5, r18	; 0x05
    206c:	3e 83       	std	Y+6, r19	; 0x06
    206e:	4f 83       	std	Y+7, r20	; 0x07
    2070:	58 87       	std	Y+8, r21	; 0x08
    2072:	89 e0       	ldi	r24, 0x09	; 9
    2074:	e8 2e       	mov	r14, r24
    2076:	f1 2c       	mov	r15, r1
    2078:	ec 0e       	add	r14, r28
    207a:	fd 1e       	adc	r15, r29
    207c:	ce 01       	movw	r24, r28
    207e:	01 96       	adiw	r24, 0x01	; 1
    2080:	b7 01       	movw	r22, r14
    2082:	0e 94 24 12 	call	0x2448	; 0x2448 <__unpack_f>
    2086:	8e 01       	movw	r16, r28
    2088:	0f 5e       	subi	r16, 0xEF	; 239
    208a:	1f 4f       	sbci	r17, 0xFF	; 255
    208c:	ce 01       	movw	r24, r28
    208e:	05 96       	adiw	r24, 0x05	; 5
    2090:	b8 01       	movw	r22, r16
    2092:	0e 94 24 12 	call	0x2448	; 0x2448 <__unpack_f>
    2096:	89 85       	ldd	r24, Y+9	; 0x09
    2098:	82 30       	cpi	r24, 0x02	; 2
    209a:	40 f0       	brcs	.+16     	; 0x20ac <__ltsf2+0x56>
    209c:	89 89       	ldd	r24, Y+17	; 0x11
    209e:	82 30       	cpi	r24, 0x02	; 2
    20a0:	28 f0       	brcs	.+10     	; 0x20ac <__ltsf2+0x56>
    20a2:	c7 01       	movw	r24, r14
    20a4:	b8 01       	movw	r22, r16
    20a6:	0e 94 46 14 	call	0x288c	; 0x288c <__fpcmp_parts_f>
    20aa:	01 c0       	rjmp	.+2      	; 0x20ae <__ltsf2+0x58>
    20ac:	81 e0       	ldi	r24, 0x01	; 1
    20ae:	68 96       	adiw	r28, 0x18	; 24
    20b0:	e6 e0       	ldi	r30, 0x06	; 6
    20b2:	0c 94 c4 1f 	jmp	0x3f88	; 0x3f88 <__epilogue_restores__+0x18>

000020b6 <__floatunsisf>:
    20b6:	a8 e0       	ldi	r26, 0x08	; 8
    20b8:	b0 e0       	ldi	r27, 0x00	; 0
    20ba:	e1 e6       	ldi	r30, 0x61	; 97
    20bc:	f0 e1       	ldi	r31, 0x10	; 16
    20be:	0c 94 a4 1f 	jmp	0x3f48	; 0x3f48 <__prologue_saves__+0x10>
    20c2:	7b 01       	movw	r14, r22
    20c4:	8c 01       	movw	r16, r24
    20c6:	61 15       	cp	r22, r1
    20c8:	71 05       	cpc	r23, r1
    20ca:	81 05       	cpc	r24, r1
    20cc:	91 05       	cpc	r25, r1
    20ce:	19 f4       	brne	.+6      	; 0x20d6 <__floatunsisf+0x20>
    20d0:	82 e0       	ldi	r24, 0x02	; 2
    20d2:	89 83       	std	Y+1, r24	; 0x01
    20d4:	60 c0       	rjmp	.+192    	; 0x2196 <__floatunsisf+0xe0>
    20d6:	83 e0       	ldi	r24, 0x03	; 3
    20d8:	89 83       	std	Y+1, r24	; 0x01
    20da:	8e e1       	ldi	r24, 0x1E	; 30
    20dc:	c8 2e       	mov	r12, r24
    20de:	d1 2c       	mov	r13, r1
    20e0:	dc 82       	std	Y+4, r13	; 0x04
    20e2:	cb 82       	std	Y+3, r12	; 0x03
    20e4:	ed 82       	std	Y+5, r14	; 0x05
    20e6:	fe 82       	std	Y+6, r15	; 0x06
    20e8:	0f 83       	std	Y+7, r16	; 0x07
    20ea:	18 87       	std	Y+8, r17	; 0x08
    20ec:	c8 01       	movw	r24, r16
    20ee:	b7 01       	movw	r22, r14
    20f0:	0e 94 d4 10 	call	0x21a8	; 0x21a8 <__clzsi2>
    20f4:	fc 01       	movw	r30, r24
    20f6:	31 97       	sbiw	r30, 0x01	; 1
    20f8:	f7 ff       	sbrs	r31, 7
    20fa:	3b c0       	rjmp	.+118    	; 0x2172 <__floatunsisf+0xbc>
    20fc:	22 27       	eor	r18, r18
    20fe:	33 27       	eor	r19, r19
    2100:	2e 1b       	sub	r18, r30
    2102:	3f 0b       	sbc	r19, r31
    2104:	57 01       	movw	r10, r14
    2106:	68 01       	movw	r12, r16
    2108:	02 2e       	mov	r0, r18
    210a:	04 c0       	rjmp	.+8      	; 0x2114 <__floatunsisf+0x5e>
    210c:	d6 94       	lsr	r13
    210e:	c7 94       	ror	r12
    2110:	b7 94       	ror	r11
    2112:	a7 94       	ror	r10
    2114:	0a 94       	dec	r0
    2116:	d2 f7       	brpl	.-12     	; 0x210c <__floatunsisf+0x56>
    2118:	40 e0       	ldi	r20, 0x00	; 0
    211a:	50 e0       	ldi	r21, 0x00	; 0
    211c:	60 e0       	ldi	r22, 0x00	; 0
    211e:	70 e0       	ldi	r23, 0x00	; 0
    2120:	81 e0       	ldi	r24, 0x01	; 1
    2122:	90 e0       	ldi	r25, 0x00	; 0
    2124:	a0 e0       	ldi	r26, 0x00	; 0
    2126:	b0 e0       	ldi	r27, 0x00	; 0
    2128:	04 c0       	rjmp	.+8      	; 0x2132 <__floatunsisf+0x7c>
    212a:	88 0f       	add	r24, r24
    212c:	99 1f       	adc	r25, r25
    212e:	aa 1f       	adc	r26, r26
    2130:	bb 1f       	adc	r27, r27
    2132:	2a 95       	dec	r18
    2134:	d2 f7       	brpl	.-12     	; 0x212a <__floatunsisf+0x74>
    2136:	01 97       	sbiw	r24, 0x01	; 1
    2138:	a1 09       	sbc	r26, r1
    213a:	b1 09       	sbc	r27, r1
    213c:	8e 21       	and	r24, r14
    213e:	9f 21       	and	r25, r15
    2140:	a0 23       	and	r26, r16
    2142:	b1 23       	and	r27, r17
    2144:	00 97       	sbiw	r24, 0x00	; 0
    2146:	a1 05       	cpc	r26, r1
    2148:	b1 05       	cpc	r27, r1
    214a:	21 f0       	breq	.+8      	; 0x2154 <__floatunsisf+0x9e>
    214c:	41 e0       	ldi	r20, 0x01	; 1
    214e:	50 e0       	ldi	r21, 0x00	; 0
    2150:	60 e0       	ldi	r22, 0x00	; 0
    2152:	70 e0       	ldi	r23, 0x00	; 0
    2154:	4a 29       	or	r20, r10
    2156:	5b 29       	or	r21, r11
    2158:	6c 29       	or	r22, r12
    215a:	7d 29       	or	r23, r13
    215c:	4d 83       	std	Y+5, r20	; 0x05
    215e:	5e 83       	std	Y+6, r21	; 0x06
    2160:	6f 83       	std	Y+7, r22	; 0x07
    2162:	78 87       	std	Y+8, r23	; 0x08
    2164:	8e e1       	ldi	r24, 0x1E	; 30
    2166:	90 e0       	ldi	r25, 0x00	; 0
    2168:	8e 1b       	sub	r24, r30
    216a:	9f 0b       	sbc	r25, r31
    216c:	9c 83       	std	Y+4, r25	; 0x04
    216e:	8b 83       	std	Y+3, r24	; 0x03
    2170:	12 c0       	rjmp	.+36     	; 0x2196 <__floatunsisf+0xe0>
    2172:	30 97       	sbiw	r30, 0x00	; 0
    2174:	81 f0       	breq	.+32     	; 0x2196 <__floatunsisf+0xe0>
    2176:	0e 2e       	mov	r0, r30
    2178:	04 c0       	rjmp	.+8      	; 0x2182 <__floatunsisf+0xcc>
    217a:	ee 0c       	add	r14, r14
    217c:	ff 1c       	adc	r15, r15
    217e:	00 1f       	adc	r16, r16
    2180:	11 1f       	adc	r17, r17
    2182:	0a 94       	dec	r0
    2184:	d2 f7       	brpl	.-12     	; 0x217a <__floatunsisf+0xc4>
    2186:	ed 82       	std	Y+5, r14	; 0x05
    2188:	fe 82       	std	Y+6, r15	; 0x06
    218a:	0f 83       	std	Y+7, r16	; 0x07
    218c:	18 87       	std	Y+8, r17	; 0x08
    218e:	ce 1a       	sub	r12, r30
    2190:	df 0a       	sbc	r13, r31
    2192:	dc 82       	std	Y+4, r13	; 0x04
    2194:	cb 82       	std	Y+3, r12	; 0x03
    2196:	1a 82       	std	Y+2, r1	; 0x02
    2198:	ce 01       	movw	r24, r28
    219a:	01 96       	adiw	r24, 0x01	; 1
    219c:	0e 94 4f 11 	call	0x229e	; 0x229e <__pack_f>
    21a0:	28 96       	adiw	r28, 0x08	; 8
    21a2:	ea e0       	ldi	r30, 0x0A	; 10
    21a4:	0c 94 c0 1f 	jmp	0x3f80	; 0x3f80 <__epilogue_restores__+0x10>

000021a8 <__clzsi2>:
    21a8:	ef 92       	push	r14
    21aa:	ff 92       	push	r15
    21ac:	0f 93       	push	r16
    21ae:	1f 93       	push	r17
    21b0:	7b 01       	movw	r14, r22
    21b2:	8c 01       	movw	r16, r24
    21b4:	80 e0       	ldi	r24, 0x00	; 0
    21b6:	e8 16       	cp	r14, r24
    21b8:	80 e0       	ldi	r24, 0x00	; 0
    21ba:	f8 06       	cpc	r15, r24
    21bc:	81 e0       	ldi	r24, 0x01	; 1
    21be:	08 07       	cpc	r16, r24
    21c0:	80 e0       	ldi	r24, 0x00	; 0
    21c2:	18 07       	cpc	r17, r24
    21c4:	88 f4       	brcc	.+34     	; 0x21e8 <__clzsi2+0x40>
    21c6:	8f ef       	ldi	r24, 0xFF	; 255
    21c8:	e8 16       	cp	r14, r24
    21ca:	f1 04       	cpc	r15, r1
    21cc:	01 05       	cpc	r16, r1
    21ce:	11 05       	cpc	r17, r1
    21d0:	31 f0       	breq	.+12     	; 0x21de <__clzsi2+0x36>
    21d2:	28 f0       	brcs	.+10     	; 0x21de <__clzsi2+0x36>
    21d4:	88 e0       	ldi	r24, 0x08	; 8
    21d6:	90 e0       	ldi	r25, 0x00	; 0
    21d8:	a0 e0       	ldi	r26, 0x00	; 0
    21da:	b0 e0       	ldi	r27, 0x00	; 0
    21dc:	17 c0       	rjmp	.+46     	; 0x220c <__clzsi2+0x64>
    21de:	80 e0       	ldi	r24, 0x00	; 0
    21e0:	90 e0       	ldi	r25, 0x00	; 0
    21e2:	a0 e0       	ldi	r26, 0x00	; 0
    21e4:	b0 e0       	ldi	r27, 0x00	; 0
    21e6:	12 c0       	rjmp	.+36     	; 0x220c <__clzsi2+0x64>
    21e8:	80 e0       	ldi	r24, 0x00	; 0
    21ea:	e8 16       	cp	r14, r24
    21ec:	80 e0       	ldi	r24, 0x00	; 0
    21ee:	f8 06       	cpc	r15, r24
    21f0:	80 e0       	ldi	r24, 0x00	; 0
    21f2:	08 07       	cpc	r16, r24
    21f4:	81 e0       	ldi	r24, 0x01	; 1
    21f6:	18 07       	cpc	r17, r24
    21f8:	28 f0       	brcs	.+10     	; 0x2204 <__clzsi2+0x5c>
    21fa:	88 e1       	ldi	r24, 0x18	; 24
    21fc:	90 e0       	ldi	r25, 0x00	; 0
    21fe:	a0 e0       	ldi	r26, 0x00	; 0
    2200:	b0 e0       	ldi	r27, 0x00	; 0
    2202:	04 c0       	rjmp	.+8      	; 0x220c <__clzsi2+0x64>
    2204:	80 e1       	ldi	r24, 0x10	; 16
    2206:	90 e0       	ldi	r25, 0x00	; 0
    2208:	a0 e0       	ldi	r26, 0x00	; 0
    220a:	b0 e0       	ldi	r27, 0x00	; 0
    220c:	20 e2       	ldi	r18, 0x20	; 32
    220e:	30 e0       	ldi	r19, 0x00	; 0
    2210:	40 e0       	ldi	r20, 0x00	; 0
    2212:	50 e0       	ldi	r21, 0x00	; 0
    2214:	28 1b       	sub	r18, r24
    2216:	39 0b       	sbc	r19, r25
    2218:	4a 0b       	sbc	r20, r26
    221a:	5b 0b       	sbc	r21, r27
    221c:	04 c0       	rjmp	.+8      	; 0x2226 <__clzsi2+0x7e>
    221e:	16 95       	lsr	r17
    2220:	07 95       	ror	r16
    2222:	f7 94       	ror	r15
    2224:	e7 94       	ror	r14
    2226:	8a 95       	dec	r24
    2228:	d2 f7       	brpl	.-12     	; 0x221e <__clzsi2+0x76>
    222a:	f7 01       	movw	r30, r14
    222c:	e8 59       	subi	r30, 0x98	; 152
    222e:	ff 4f       	sbci	r31, 0xFF	; 255
    2230:	80 81       	ld	r24, Z
    2232:	28 1b       	sub	r18, r24
    2234:	31 09       	sbc	r19, r1
    2236:	41 09       	sbc	r20, r1
    2238:	51 09       	sbc	r21, r1
    223a:	c9 01       	movw	r24, r18
    223c:	1f 91       	pop	r17
    223e:	0f 91       	pop	r16
    2240:	ff 90       	pop	r15
    2242:	ef 90       	pop	r14
    2244:	08 95       	ret

00002246 <__fixunssfsi>:
    2246:	ef 92       	push	r14
    2248:	ff 92       	push	r15
    224a:	0f 93       	push	r16
    224c:	1f 93       	push	r17
    224e:	7b 01       	movw	r14, r22
    2250:	8c 01       	movw	r16, r24
    2252:	20 e0       	ldi	r18, 0x00	; 0
    2254:	30 e0       	ldi	r19, 0x00	; 0
    2256:	40 e0       	ldi	r20, 0x00	; 0
    2258:	5f e4       	ldi	r21, 0x4F	; 79
    225a:	0e 94 fb 0f 	call	0x1ff6	; 0x1ff6 <__gesf2>
    225e:	88 23       	and	r24, r24
    2260:	8c f0       	brlt	.+34     	; 0x2284 <__fixunssfsi+0x3e>
    2262:	c8 01       	movw	r24, r16
    2264:	b7 01       	movw	r22, r14
    2266:	20 e0       	ldi	r18, 0x00	; 0
    2268:	30 e0       	ldi	r19, 0x00	; 0
    226a:	40 e0       	ldi	r20, 0x00	; 0
    226c:	5f e4       	ldi	r21, 0x4F	; 79
    226e:	0e 94 e8 13 	call	0x27d0	; 0x27d0 <__subsf3>
    2272:	0e 94 9f 14 	call	0x293e	; 0x293e <__fixsfsi>
    2276:	9b 01       	movw	r18, r22
    2278:	ac 01       	movw	r20, r24
    227a:	20 50       	subi	r18, 0x00	; 0
    227c:	30 40       	sbci	r19, 0x00	; 0
    227e:	40 40       	sbci	r20, 0x00	; 0
    2280:	50 48       	sbci	r21, 0x80	; 128
    2282:	06 c0       	rjmp	.+12     	; 0x2290 <__fixunssfsi+0x4a>
    2284:	c8 01       	movw	r24, r16
    2286:	b7 01       	movw	r22, r14
    2288:	0e 94 9f 14 	call	0x293e	; 0x293e <__fixsfsi>
    228c:	9b 01       	movw	r18, r22
    228e:	ac 01       	movw	r20, r24
    2290:	b9 01       	movw	r22, r18
    2292:	ca 01       	movw	r24, r20
    2294:	1f 91       	pop	r17
    2296:	0f 91       	pop	r16
    2298:	ff 90       	pop	r15
    229a:	ef 90       	pop	r14
    229c:	08 95       	ret

0000229e <__pack_f>:
    229e:	df 92       	push	r13
    22a0:	ef 92       	push	r14
    22a2:	ff 92       	push	r15
    22a4:	0f 93       	push	r16
    22a6:	1f 93       	push	r17
    22a8:	fc 01       	movw	r30, r24
    22aa:	e4 80       	ldd	r14, Z+4	; 0x04
    22ac:	f5 80       	ldd	r15, Z+5	; 0x05
    22ae:	06 81       	ldd	r16, Z+6	; 0x06
    22b0:	17 81       	ldd	r17, Z+7	; 0x07
    22b2:	d1 80       	ldd	r13, Z+1	; 0x01
    22b4:	80 81       	ld	r24, Z
    22b6:	82 30       	cpi	r24, 0x02	; 2
    22b8:	48 f4       	brcc	.+18     	; 0x22cc <__pack_f+0x2e>
    22ba:	80 e0       	ldi	r24, 0x00	; 0
    22bc:	90 e0       	ldi	r25, 0x00	; 0
    22be:	a0 e1       	ldi	r26, 0x10	; 16
    22c0:	b0 e0       	ldi	r27, 0x00	; 0
    22c2:	e8 2a       	or	r14, r24
    22c4:	f9 2a       	or	r15, r25
    22c6:	0a 2b       	or	r16, r26
    22c8:	1b 2b       	or	r17, r27
    22ca:	a5 c0       	rjmp	.+330    	; 0x2416 <__pack_f+0x178>
    22cc:	84 30       	cpi	r24, 0x04	; 4
    22ce:	09 f4       	brne	.+2      	; 0x22d2 <__pack_f+0x34>
    22d0:	9f c0       	rjmp	.+318    	; 0x2410 <__pack_f+0x172>
    22d2:	82 30       	cpi	r24, 0x02	; 2
    22d4:	21 f4       	brne	.+8      	; 0x22de <__pack_f+0x40>
    22d6:	ee 24       	eor	r14, r14
    22d8:	ff 24       	eor	r15, r15
    22da:	87 01       	movw	r16, r14
    22dc:	05 c0       	rjmp	.+10     	; 0x22e8 <__pack_f+0x4a>
    22de:	e1 14       	cp	r14, r1
    22e0:	f1 04       	cpc	r15, r1
    22e2:	01 05       	cpc	r16, r1
    22e4:	11 05       	cpc	r17, r1
    22e6:	19 f4       	brne	.+6      	; 0x22ee <__pack_f+0x50>
    22e8:	e0 e0       	ldi	r30, 0x00	; 0
    22ea:	f0 e0       	ldi	r31, 0x00	; 0
    22ec:	96 c0       	rjmp	.+300    	; 0x241a <__pack_f+0x17c>
    22ee:	62 81       	ldd	r22, Z+2	; 0x02
    22f0:	73 81       	ldd	r23, Z+3	; 0x03
    22f2:	9f ef       	ldi	r25, 0xFF	; 255
    22f4:	62 38       	cpi	r22, 0x82	; 130
    22f6:	79 07       	cpc	r23, r25
    22f8:	0c f0       	brlt	.+2      	; 0x22fc <__pack_f+0x5e>
    22fa:	5b c0       	rjmp	.+182    	; 0x23b2 <__pack_f+0x114>
    22fc:	22 e8       	ldi	r18, 0x82	; 130
    22fe:	3f ef       	ldi	r19, 0xFF	; 255
    2300:	26 1b       	sub	r18, r22
    2302:	37 0b       	sbc	r19, r23
    2304:	2a 31       	cpi	r18, 0x1A	; 26
    2306:	31 05       	cpc	r19, r1
    2308:	2c f0       	brlt	.+10     	; 0x2314 <__pack_f+0x76>
    230a:	20 e0       	ldi	r18, 0x00	; 0
    230c:	30 e0       	ldi	r19, 0x00	; 0
    230e:	40 e0       	ldi	r20, 0x00	; 0
    2310:	50 e0       	ldi	r21, 0x00	; 0
    2312:	2a c0       	rjmp	.+84     	; 0x2368 <__pack_f+0xca>
    2314:	b8 01       	movw	r22, r16
    2316:	a7 01       	movw	r20, r14
    2318:	02 2e       	mov	r0, r18
    231a:	04 c0       	rjmp	.+8      	; 0x2324 <__pack_f+0x86>
    231c:	76 95       	lsr	r23
    231e:	67 95       	ror	r22
    2320:	57 95       	ror	r21
    2322:	47 95       	ror	r20
    2324:	0a 94       	dec	r0
    2326:	d2 f7       	brpl	.-12     	; 0x231c <__pack_f+0x7e>
    2328:	81 e0       	ldi	r24, 0x01	; 1
    232a:	90 e0       	ldi	r25, 0x00	; 0
    232c:	a0 e0       	ldi	r26, 0x00	; 0
    232e:	b0 e0       	ldi	r27, 0x00	; 0
    2330:	04 c0       	rjmp	.+8      	; 0x233a <__pack_f+0x9c>
    2332:	88 0f       	add	r24, r24
    2334:	99 1f       	adc	r25, r25
    2336:	aa 1f       	adc	r26, r26
    2338:	bb 1f       	adc	r27, r27
    233a:	2a 95       	dec	r18
    233c:	d2 f7       	brpl	.-12     	; 0x2332 <__pack_f+0x94>
    233e:	01 97       	sbiw	r24, 0x01	; 1
    2340:	a1 09       	sbc	r26, r1
    2342:	b1 09       	sbc	r27, r1
    2344:	8e 21       	and	r24, r14
    2346:	9f 21       	and	r25, r15
    2348:	a0 23       	and	r26, r16
    234a:	b1 23       	and	r27, r17
    234c:	00 97       	sbiw	r24, 0x00	; 0
    234e:	a1 05       	cpc	r26, r1
    2350:	b1 05       	cpc	r27, r1
    2352:	21 f0       	breq	.+8      	; 0x235c <__pack_f+0xbe>
    2354:	81 e0       	ldi	r24, 0x01	; 1
    2356:	90 e0       	ldi	r25, 0x00	; 0
    2358:	a0 e0       	ldi	r26, 0x00	; 0
    235a:	b0 e0       	ldi	r27, 0x00	; 0
    235c:	9a 01       	movw	r18, r20
    235e:	ab 01       	movw	r20, r22
    2360:	28 2b       	or	r18, r24
    2362:	39 2b       	or	r19, r25
    2364:	4a 2b       	or	r20, r26
    2366:	5b 2b       	or	r21, r27
    2368:	da 01       	movw	r26, r20
    236a:	c9 01       	movw	r24, r18
    236c:	8f 77       	andi	r24, 0x7F	; 127
    236e:	90 70       	andi	r25, 0x00	; 0
    2370:	a0 70       	andi	r26, 0x00	; 0
    2372:	b0 70       	andi	r27, 0x00	; 0
    2374:	80 34       	cpi	r24, 0x40	; 64
    2376:	91 05       	cpc	r25, r1
    2378:	a1 05       	cpc	r26, r1
    237a:	b1 05       	cpc	r27, r1
    237c:	39 f4       	brne	.+14     	; 0x238c <__pack_f+0xee>
    237e:	27 ff       	sbrs	r18, 7
    2380:	09 c0       	rjmp	.+18     	; 0x2394 <__pack_f+0xf6>
    2382:	20 5c       	subi	r18, 0xC0	; 192
    2384:	3f 4f       	sbci	r19, 0xFF	; 255
    2386:	4f 4f       	sbci	r20, 0xFF	; 255
    2388:	5f 4f       	sbci	r21, 0xFF	; 255
    238a:	04 c0       	rjmp	.+8      	; 0x2394 <__pack_f+0xf6>
    238c:	21 5c       	subi	r18, 0xC1	; 193
    238e:	3f 4f       	sbci	r19, 0xFF	; 255
    2390:	4f 4f       	sbci	r20, 0xFF	; 255
    2392:	5f 4f       	sbci	r21, 0xFF	; 255
    2394:	e0 e0       	ldi	r30, 0x00	; 0
    2396:	f0 e0       	ldi	r31, 0x00	; 0
    2398:	20 30       	cpi	r18, 0x00	; 0
    239a:	a0 e0       	ldi	r26, 0x00	; 0
    239c:	3a 07       	cpc	r19, r26
    239e:	a0 e0       	ldi	r26, 0x00	; 0
    23a0:	4a 07       	cpc	r20, r26
    23a2:	a0 e4       	ldi	r26, 0x40	; 64
    23a4:	5a 07       	cpc	r21, r26
    23a6:	10 f0       	brcs	.+4      	; 0x23ac <__pack_f+0x10e>
    23a8:	e1 e0       	ldi	r30, 0x01	; 1
    23aa:	f0 e0       	ldi	r31, 0x00	; 0
    23ac:	79 01       	movw	r14, r18
    23ae:	8a 01       	movw	r16, r20
    23b0:	27 c0       	rjmp	.+78     	; 0x2400 <__pack_f+0x162>
    23b2:	60 38       	cpi	r22, 0x80	; 128
    23b4:	71 05       	cpc	r23, r1
    23b6:	64 f5       	brge	.+88     	; 0x2410 <__pack_f+0x172>
    23b8:	fb 01       	movw	r30, r22
    23ba:	e1 58       	subi	r30, 0x81	; 129
    23bc:	ff 4f       	sbci	r31, 0xFF	; 255
    23be:	d8 01       	movw	r26, r16
    23c0:	c7 01       	movw	r24, r14
    23c2:	8f 77       	andi	r24, 0x7F	; 127
    23c4:	90 70       	andi	r25, 0x00	; 0
    23c6:	a0 70       	andi	r26, 0x00	; 0
    23c8:	b0 70       	andi	r27, 0x00	; 0
    23ca:	80 34       	cpi	r24, 0x40	; 64
    23cc:	91 05       	cpc	r25, r1
    23ce:	a1 05       	cpc	r26, r1
    23d0:	b1 05       	cpc	r27, r1
    23d2:	39 f4       	brne	.+14     	; 0x23e2 <__pack_f+0x144>
    23d4:	e7 fe       	sbrs	r14, 7
    23d6:	0d c0       	rjmp	.+26     	; 0x23f2 <__pack_f+0x154>
    23d8:	80 e4       	ldi	r24, 0x40	; 64
    23da:	90 e0       	ldi	r25, 0x00	; 0
    23dc:	a0 e0       	ldi	r26, 0x00	; 0
    23de:	b0 e0       	ldi	r27, 0x00	; 0
    23e0:	04 c0       	rjmp	.+8      	; 0x23ea <__pack_f+0x14c>
    23e2:	8f e3       	ldi	r24, 0x3F	; 63
    23e4:	90 e0       	ldi	r25, 0x00	; 0
    23e6:	a0 e0       	ldi	r26, 0x00	; 0
    23e8:	b0 e0       	ldi	r27, 0x00	; 0
    23ea:	e8 0e       	add	r14, r24
    23ec:	f9 1e       	adc	r15, r25
    23ee:	0a 1f       	adc	r16, r26
    23f0:	1b 1f       	adc	r17, r27
    23f2:	17 ff       	sbrs	r17, 7
    23f4:	05 c0       	rjmp	.+10     	; 0x2400 <__pack_f+0x162>
    23f6:	16 95       	lsr	r17
    23f8:	07 95       	ror	r16
    23fa:	f7 94       	ror	r15
    23fc:	e7 94       	ror	r14
    23fe:	31 96       	adiw	r30, 0x01	; 1
    2400:	87 e0       	ldi	r24, 0x07	; 7
    2402:	16 95       	lsr	r17
    2404:	07 95       	ror	r16
    2406:	f7 94       	ror	r15
    2408:	e7 94       	ror	r14
    240a:	8a 95       	dec	r24
    240c:	d1 f7       	brne	.-12     	; 0x2402 <__pack_f+0x164>
    240e:	05 c0       	rjmp	.+10     	; 0x241a <__pack_f+0x17c>
    2410:	ee 24       	eor	r14, r14
    2412:	ff 24       	eor	r15, r15
    2414:	87 01       	movw	r16, r14
    2416:	ef ef       	ldi	r30, 0xFF	; 255
    2418:	f0 e0       	ldi	r31, 0x00	; 0
    241a:	6e 2f       	mov	r22, r30
    241c:	67 95       	ror	r22
    241e:	66 27       	eor	r22, r22
    2420:	67 95       	ror	r22
    2422:	90 2f       	mov	r25, r16
    2424:	9f 77       	andi	r25, 0x7F	; 127
    2426:	d7 94       	ror	r13
    2428:	dd 24       	eor	r13, r13
    242a:	d7 94       	ror	r13
    242c:	8e 2f       	mov	r24, r30
    242e:	86 95       	lsr	r24
    2430:	49 2f       	mov	r20, r25
    2432:	46 2b       	or	r20, r22
    2434:	58 2f       	mov	r21, r24
    2436:	5d 29       	or	r21, r13
    2438:	b7 01       	movw	r22, r14
    243a:	ca 01       	movw	r24, r20
    243c:	1f 91       	pop	r17
    243e:	0f 91       	pop	r16
    2440:	ff 90       	pop	r15
    2442:	ef 90       	pop	r14
    2444:	df 90       	pop	r13
    2446:	08 95       	ret

00002448 <__unpack_f>:
    2448:	fc 01       	movw	r30, r24
    244a:	db 01       	movw	r26, r22
    244c:	40 81       	ld	r20, Z
    244e:	51 81       	ldd	r21, Z+1	; 0x01
    2450:	22 81       	ldd	r18, Z+2	; 0x02
    2452:	62 2f       	mov	r22, r18
    2454:	6f 77       	andi	r22, 0x7F	; 127
    2456:	70 e0       	ldi	r23, 0x00	; 0
    2458:	22 1f       	adc	r18, r18
    245a:	22 27       	eor	r18, r18
    245c:	22 1f       	adc	r18, r18
    245e:	93 81       	ldd	r25, Z+3	; 0x03
    2460:	89 2f       	mov	r24, r25
    2462:	88 0f       	add	r24, r24
    2464:	82 2b       	or	r24, r18
    2466:	28 2f       	mov	r18, r24
    2468:	30 e0       	ldi	r19, 0x00	; 0
    246a:	99 1f       	adc	r25, r25
    246c:	99 27       	eor	r25, r25
    246e:	99 1f       	adc	r25, r25
    2470:	11 96       	adiw	r26, 0x01	; 1
    2472:	9c 93       	st	X, r25
    2474:	11 97       	sbiw	r26, 0x01	; 1
    2476:	21 15       	cp	r18, r1
    2478:	31 05       	cpc	r19, r1
    247a:	a9 f5       	brne	.+106    	; 0x24e6 <__unpack_f+0x9e>
    247c:	41 15       	cp	r20, r1
    247e:	51 05       	cpc	r21, r1
    2480:	61 05       	cpc	r22, r1
    2482:	71 05       	cpc	r23, r1
    2484:	11 f4       	brne	.+4      	; 0x248a <__unpack_f+0x42>
    2486:	82 e0       	ldi	r24, 0x02	; 2
    2488:	37 c0       	rjmp	.+110    	; 0x24f8 <__unpack_f+0xb0>
    248a:	82 e8       	ldi	r24, 0x82	; 130
    248c:	9f ef       	ldi	r25, 0xFF	; 255
    248e:	13 96       	adiw	r26, 0x03	; 3
    2490:	9c 93       	st	X, r25
    2492:	8e 93       	st	-X, r24
    2494:	12 97       	sbiw	r26, 0x02	; 2
    2496:	9a 01       	movw	r18, r20
    2498:	ab 01       	movw	r20, r22
    249a:	67 e0       	ldi	r22, 0x07	; 7
    249c:	22 0f       	add	r18, r18
    249e:	33 1f       	adc	r19, r19
    24a0:	44 1f       	adc	r20, r20
    24a2:	55 1f       	adc	r21, r21
    24a4:	6a 95       	dec	r22
    24a6:	d1 f7       	brne	.-12     	; 0x249c <__unpack_f+0x54>
    24a8:	83 e0       	ldi	r24, 0x03	; 3
    24aa:	8c 93       	st	X, r24
    24ac:	0d c0       	rjmp	.+26     	; 0x24c8 <__unpack_f+0x80>
    24ae:	22 0f       	add	r18, r18
    24b0:	33 1f       	adc	r19, r19
    24b2:	44 1f       	adc	r20, r20
    24b4:	55 1f       	adc	r21, r21
    24b6:	12 96       	adiw	r26, 0x02	; 2
    24b8:	8d 91       	ld	r24, X+
    24ba:	9c 91       	ld	r25, X
    24bc:	13 97       	sbiw	r26, 0x03	; 3
    24be:	01 97       	sbiw	r24, 0x01	; 1
    24c0:	13 96       	adiw	r26, 0x03	; 3
    24c2:	9c 93       	st	X, r25
    24c4:	8e 93       	st	-X, r24
    24c6:	12 97       	sbiw	r26, 0x02	; 2
    24c8:	20 30       	cpi	r18, 0x00	; 0
    24ca:	80 e0       	ldi	r24, 0x00	; 0
    24cc:	38 07       	cpc	r19, r24
    24ce:	80 e0       	ldi	r24, 0x00	; 0
    24d0:	48 07       	cpc	r20, r24
    24d2:	80 e4       	ldi	r24, 0x40	; 64
    24d4:	58 07       	cpc	r21, r24
    24d6:	58 f3       	brcs	.-42     	; 0x24ae <__unpack_f+0x66>
    24d8:	14 96       	adiw	r26, 0x04	; 4
    24da:	2d 93       	st	X+, r18
    24dc:	3d 93       	st	X+, r19
    24de:	4d 93       	st	X+, r20
    24e0:	5c 93       	st	X, r21
    24e2:	17 97       	sbiw	r26, 0x07	; 7
    24e4:	08 95       	ret
    24e6:	2f 3f       	cpi	r18, 0xFF	; 255
    24e8:	31 05       	cpc	r19, r1
    24ea:	79 f4       	brne	.+30     	; 0x250a <__unpack_f+0xc2>
    24ec:	41 15       	cp	r20, r1
    24ee:	51 05       	cpc	r21, r1
    24f0:	61 05       	cpc	r22, r1
    24f2:	71 05       	cpc	r23, r1
    24f4:	19 f4       	brne	.+6      	; 0x24fc <__unpack_f+0xb4>
    24f6:	84 e0       	ldi	r24, 0x04	; 4
    24f8:	8c 93       	st	X, r24
    24fa:	08 95       	ret
    24fc:	64 ff       	sbrs	r22, 4
    24fe:	03 c0       	rjmp	.+6      	; 0x2506 <__unpack_f+0xbe>
    2500:	81 e0       	ldi	r24, 0x01	; 1
    2502:	8c 93       	st	X, r24
    2504:	12 c0       	rjmp	.+36     	; 0x252a <__unpack_f+0xe2>
    2506:	1c 92       	st	X, r1
    2508:	10 c0       	rjmp	.+32     	; 0x252a <__unpack_f+0xe2>
    250a:	2f 57       	subi	r18, 0x7F	; 127
    250c:	30 40       	sbci	r19, 0x00	; 0
    250e:	13 96       	adiw	r26, 0x03	; 3
    2510:	3c 93       	st	X, r19
    2512:	2e 93       	st	-X, r18
    2514:	12 97       	sbiw	r26, 0x02	; 2
    2516:	83 e0       	ldi	r24, 0x03	; 3
    2518:	8c 93       	st	X, r24
    251a:	87 e0       	ldi	r24, 0x07	; 7
    251c:	44 0f       	add	r20, r20
    251e:	55 1f       	adc	r21, r21
    2520:	66 1f       	adc	r22, r22
    2522:	77 1f       	adc	r23, r23
    2524:	8a 95       	dec	r24
    2526:	d1 f7       	brne	.-12     	; 0x251c <__unpack_f+0xd4>
    2528:	70 64       	ori	r23, 0x40	; 64
    252a:	14 96       	adiw	r26, 0x04	; 4
    252c:	4d 93       	st	X+, r20
    252e:	5d 93       	st	X+, r21
    2530:	6d 93       	st	X+, r22
    2532:	7c 93       	st	X, r23
    2534:	17 97       	sbiw	r26, 0x07	; 7
    2536:	08 95       	ret

00002538 <_fpadd_parts>:
    2538:	a0 e0       	ldi	r26, 0x00	; 0
    253a:	b0 e0       	ldi	r27, 0x00	; 0
    253c:	e2 ea       	ldi	r30, 0xA2	; 162
    253e:	f2 e1       	ldi	r31, 0x12	; 18
    2540:	0c 94 9c 1f 	jmp	0x3f38	; 0x3f38 <__prologue_saves__>
    2544:	dc 01       	movw	r26, r24
    2546:	2b 01       	movw	r4, r22
    2548:	fa 01       	movw	r30, r20
    254a:	9c 91       	ld	r25, X
    254c:	92 30       	cpi	r25, 0x02	; 2
    254e:	08 f4       	brcc	.+2      	; 0x2552 <_fpadd_parts+0x1a>
    2550:	39 c1       	rjmp	.+626    	; 0x27c4 <_fpadd_parts+0x28c>
    2552:	eb 01       	movw	r28, r22
    2554:	88 81       	ld	r24, Y
    2556:	82 30       	cpi	r24, 0x02	; 2
    2558:	08 f4       	brcc	.+2      	; 0x255c <_fpadd_parts+0x24>
    255a:	33 c1       	rjmp	.+614    	; 0x27c2 <_fpadd_parts+0x28a>
    255c:	94 30       	cpi	r25, 0x04	; 4
    255e:	69 f4       	brne	.+26     	; 0x257a <_fpadd_parts+0x42>
    2560:	84 30       	cpi	r24, 0x04	; 4
    2562:	09 f0       	breq	.+2      	; 0x2566 <_fpadd_parts+0x2e>
    2564:	2f c1       	rjmp	.+606    	; 0x27c4 <_fpadd_parts+0x28c>
    2566:	11 96       	adiw	r26, 0x01	; 1
    2568:	9c 91       	ld	r25, X
    256a:	11 97       	sbiw	r26, 0x01	; 1
    256c:	89 81       	ldd	r24, Y+1	; 0x01
    256e:	98 17       	cp	r25, r24
    2570:	09 f4       	brne	.+2      	; 0x2574 <_fpadd_parts+0x3c>
    2572:	28 c1       	rjmp	.+592    	; 0x27c4 <_fpadd_parts+0x28c>
    2574:	a0 e6       	ldi	r26, 0x60	; 96
    2576:	b0 e0       	ldi	r27, 0x00	; 0
    2578:	25 c1       	rjmp	.+586    	; 0x27c4 <_fpadd_parts+0x28c>
    257a:	84 30       	cpi	r24, 0x04	; 4
    257c:	09 f4       	brne	.+2      	; 0x2580 <_fpadd_parts+0x48>
    257e:	21 c1       	rjmp	.+578    	; 0x27c2 <_fpadd_parts+0x28a>
    2580:	82 30       	cpi	r24, 0x02	; 2
    2582:	a9 f4       	brne	.+42     	; 0x25ae <_fpadd_parts+0x76>
    2584:	92 30       	cpi	r25, 0x02	; 2
    2586:	09 f0       	breq	.+2      	; 0x258a <_fpadd_parts+0x52>
    2588:	1d c1       	rjmp	.+570    	; 0x27c4 <_fpadd_parts+0x28c>
    258a:	9a 01       	movw	r18, r20
    258c:	ad 01       	movw	r20, r26
    258e:	88 e0       	ldi	r24, 0x08	; 8
    2590:	ea 01       	movw	r28, r20
    2592:	09 90       	ld	r0, Y+
    2594:	ae 01       	movw	r20, r28
    2596:	e9 01       	movw	r28, r18
    2598:	09 92       	st	Y+, r0
    259a:	9e 01       	movw	r18, r28
    259c:	81 50       	subi	r24, 0x01	; 1
    259e:	c1 f7       	brne	.-16     	; 0x2590 <_fpadd_parts+0x58>
    25a0:	e2 01       	movw	r28, r4
    25a2:	89 81       	ldd	r24, Y+1	; 0x01
    25a4:	11 96       	adiw	r26, 0x01	; 1
    25a6:	9c 91       	ld	r25, X
    25a8:	89 23       	and	r24, r25
    25aa:	81 83       	std	Z+1, r24	; 0x01
    25ac:	08 c1       	rjmp	.+528    	; 0x27be <_fpadd_parts+0x286>
    25ae:	92 30       	cpi	r25, 0x02	; 2
    25b0:	09 f4       	brne	.+2      	; 0x25b4 <_fpadd_parts+0x7c>
    25b2:	07 c1       	rjmp	.+526    	; 0x27c2 <_fpadd_parts+0x28a>
    25b4:	12 96       	adiw	r26, 0x02	; 2
    25b6:	2d 90       	ld	r2, X+
    25b8:	3c 90       	ld	r3, X
    25ba:	13 97       	sbiw	r26, 0x03	; 3
    25bc:	eb 01       	movw	r28, r22
    25be:	8a 81       	ldd	r24, Y+2	; 0x02
    25c0:	9b 81       	ldd	r25, Y+3	; 0x03
    25c2:	14 96       	adiw	r26, 0x04	; 4
    25c4:	ad 90       	ld	r10, X+
    25c6:	bd 90       	ld	r11, X+
    25c8:	cd 90       	ld	r12, X+
    25ca:	dc 90       	ld	r13, X
    25cc:	17 97       	sbiw	r26, 0x07	; 7
    25ce:	ec 80       	ldd	r14, Y+4	; 0x04
    25d0:	fd 80       	ldd	r15, Y+5	; 0x05
    25d2:	0e 81       	ldd	r16, Y+6	; 0x06
    25d4:	1f 81       	ldd	r17, Y+7	; 0x07
    25d6:	91 01       	movw	r18, r2
    25d8:	28 1b       	sub	r18, r24
    25da:	39 0b       	sbc	r19, r25
    25dc:	b9 01       	movw	r22, r18
    25de:	37 ff       	sbrs	r19, 7
    25e0:	04 c0       	rjmp	.+8      	; 0x25ea <_fpadd_parts+0xb2>
    25e2:	66 27       	eor	r22, r22
    25e4:	77 27       	eor	r23, r23
    25e6:	62 1b       	sub	r22, r18
    25e8:	73 0b       	sbc	r23, r19
    25ea:	60 32       	cpi	r22, 0x20	; 32
    25ec:	71 05       	cpc	r23, r1
    25ee:	0c f0       	brlt	.+2      	; 0x25f2 <_fpadd_parts+0xba>
    25f0:	61 c0       	rjmp	.+194    	; 0x26b4 <_fpadd_parts+0x17c>
    25f2:	12 16       	cp	r1, r18
    25f4:	13 06       	cpc	r1, r19
    25f6:	6c f5       	brge	.+90     	; 0x2652 <_fpadd_parts+0x11a>
    25f8:	37 01       	movw	r6, r14
    25fa:	48 01       	movw	r8, r16
    25fc:	06 2e       	mov	r0, r22
    25fe:	04 c0       	rjmp	.+8      	; 0x2608 <_fpadd_parts+0xd0>
    2600:	96 94       	lsr	r9
    2602:	87 94       	ror	r8
    2604:	77 94       	ror	r7
    2606:	67 94       	ror	r6
    2608:	0a 94       	dec	r0
    260a:	d2 f7       	brpl	.-12     	; 0x2600 <_fpadd_parts+0xc8>
    260c:	21 e0       	ldi	r18, 0x01	; 1
    260e:	30 e0       	ldi	r19, 0x00	; 0
    2610:	40 e0       	ldi	r20, 0x00	; 0
    2612:	50 e0       	ldi	r21, 0x00	; 0
    2614:	04 c0       	rjmp	.+8      	; 0x261e <_fpadd_parts+0xe6>
    2616:	22 0f       	add	r18, r18
    2618:	33 1f       	adc	r19, r19
    261a:	44 1f       	adc	r20, r20
    261c:	55 1f       	adc	r21, r21
    261e:	6a 95       	dec	r22
    2620:	d2 f7       	brpl	.-12     	; 0x2616 <_fpadd_parts+0xde>
    2622:	21 50       	subi	r18, 0x01	; 1
    2624:	30 40       	sbci	r19, 0x00	; 0
    2626:	40 40       	sbci	r20, 0x00	; 0
    2628:	50 40       	sbci	r21, 0x00	; 0
    262a:	2e 21       	and	r18, r14
    262c:	3f 21       	and	r19, r15
    262e:	40 23       	and	r20, r16
    2630:	51 23       	and	r21, r17
    2632:	21 15       	cp	r18, r1
    2634:	31 05       	cpc	r19, r1
    2636:	41 05       	cpc	r20, r1
    2638:	51 05       	cpc	r21, r1
    263a:	21 f0       	breq	.+8      	; 0x2644 <_fpadd_parts+0x10c>
    263c:	21 e0       	ldi	r18, 0x01	; 1
    263e:	30 e0       	ldi	r19, 0x00	; 0
    2640:	40 e0       	ldi	r20, 0x00	; 0
    2642:	50 e0       	ldi	r21, 0x00	; 0
    2644:	79 01       	movw	r14, r18
    2646:	8a 01       	movw	r16, r20
    2648:	e6 28       	or	r14, r6
    264a:	f7 28       	or	r15, r7
    264c:	08 29       	or	r16, r8
    264e:	19 29       	or	r17, r9
    2650:	3c c0       	rjmp	.+120    	; 0x26ca <_fpadd_parts+0x192>
    2652:	23 2b       	or	r18, r19
    2654:	d1 f1       	breq	.+116    	; 0x26ca <_fpadd_parts+0x192>
    2656:	26 0e       	add	r2, r22
    2658:	37 1e       	adc	r3, r23
    265a:	35 01       	movw	r6, r10
    265c:	46 01       	movw	r8, r12
    265e:	06 2e       	mov	r0, r22
    2660:	04 c0       	rjmp	.+8      	; 0x266a <_fpadd_parts+0x132>
    2662:	96 94       	lsr	r9
    2664:	87 94       	ror	r8
    2666:	77 94       	ror	r7
    2668:	67 94       	ror	r6
    266a:	0a 94       	dec	r0
    266c:	d2 f7       	brpl	.-12     	; 0x2662 <_fpadd_parts+0x12a>
    266e:	21 e0       	ldi	r18, 0x01	; 1
    2670:	30 e0       	ldi	r19, 0x00	; 0
    2672:	40 e0       	ldi	r20, 0x00	; 0
    2674:	50 e0       	ldi	r21, 0x00	; 0
    2676:	04 c0       	rjmp	.+8      	; 0x2680 <_fpadd_parts+0x148>
    2678:	22 0f       	add	r18, r18
    267a:	33 1f       	adc	r19, r19
    267c:	44 1f       	adc	r20, r20
    267e:	55 1f       	adc	r21, r21
    2680:	6a 95       	dec	r22
    2682:	d2 f7       	brpl	.-12     	; 0x2678 <_fpadd_parts+0x140>
    2684:	21 50       	subi	r18, 0x01	; 1
    2686:	30 40       	sbci	r19, 0x00	; 0
    2688:	40 40       	sbci	r20, 0x00	; 0
    268a:	50 40       	sbci	r21, 0x00	; 0
    268c:	2a 21       	and	r18, r10
    268e:	3b 21       	and	r19, r11
    2690:	4c 21       	and	r20, r12
    2692:	5d 21       	and	r21, r13
    2694:	21 15       	cp	r18, r1
    2696:	31 05       	cpc	r19, r1
    2698:	41 05       	cpc	r20, r1
    269a:	51 05       	cpc	r21, r1
    269c:	21 f0       	breq	.+8      	; 0x26a6 <_fpadd_parts+0x16e>
    269e:	21 e0       	ldi	r18, 0x01	; 1
    26a0:	30 e0       	ldi	r19, 0x00	; 0
    26a2:	40 e0       	ldi	r20, 0x00	; 0
    26a4:	50 e0       	ldi	r21, 0x00	; 0
    26a6:	59 01       	movw	r10, r18
    26a8:	6a 01       	movw	r12, r20
    26aa:	a6 28       	or	r10, r6
    26ac:	b7 28       	or	r11, r7
    26ae:	c8 28       	or	r12, r8
    26b0:	d9 28       	or	r13, r9
    26b2:	0b c0       	rjmp	.+22     	; 0x26ca <_fpadd_parts+0x192>
    26b4:	82 15       	cp	r24, r2
    26b6:	93 05       	cpc	r25, r3
    26b8:	2c f0       	brlt	.+10     	; 0x26c4 <_fpadd_parts+0x18c>
    26ba:	1c 01       	movw	r2, r24
    26bc:	aa 24       	eor	r10, r10
    26be:	bb 24       	eor	r11, r11
    26c0:	65 01       	movw	r12, r10
    26c2:	03 c0       	rjmp	.+6      	; 0x26ca <_fpadd_parts+0x192>
    26c4:	ee 24       	eor	r14, r14
    26c6:	ff 24       	eor	r15, r15
    26c8:	87 01       	movw	r16, r14
    26ca:	11 96       	adiw	r26, 0x01	; 1
    26cc:	9c 91       	ld	r25, X
    26ce:	d2 01       	movw	r26, r4
    26d0:	11 96       	adiw	r26, 0x01	; 1
    26d2:	8c 91       	ld	r24, X
    26d4:	98 17       	cp	r25, r24
    26d6:	09 f4       	brne	.+2      	; 0x26da <_fpadd_parts+0x1a2>
    26d8:	45 c0       	rjmp	.+138    	; 0x2764 <_fpadd_parts+0x22c>
    26da:	99 23       	and	r25, r25
    26dc:	39 f0       	breq	.+14     	; 0x26ec <_fpadd_parts+0x1b4>
    26de:	a8 01       	movw	r20, r16
    26e0:	97 01       	movw	r18, r14
    26e2:	2a 19       	sub	r18, r10
    26e4:	3b 09       	sbc	r19, r11
    26e6:	4c 09       	sbc	r20, r12
    26e8:	5d 09       	sbc	r21, r13
    26ea:	06 c0       	rjmp	.+12     	; 0x26f8 <_fpadd_parts+0x1c0>
    26ec:	a6 01       	movw	r20, r12
    26ee:	95 01       	movw	r18, r10
    26f0:	2e 19       	sub	r18, r14
    26f2:	3f 09       	sbc	r19, r15
    26f4:	40 0b       	sbc	r20, r16
    26f6:	51 0b       	sbc	r21, r17
    26f8:	57 fd       	sbrc	r21, 7
    26fa:	08 c0       	rjmp	.+16     	; 0x270c <_fpadd_parts+0x1d4>
    26fc:	11 82       	std	Z+1, r1	; 0x01
    26fe:	33 82       	std	Z+3, r3	; 0x03
    2700:	22 82       	std	Z+2, r2	; 0x02
    2702:	24 83       	std	Z+4, r18	; 0x04
    2704:	35 83       	std	Z+5, r19	; 0x05
    2706:	46 83       	std	Z+6, r20	; 0x06
    2708:	57 83       	std	Z+7, r21	; 0x07
    270a:	1d c0       	rjmp	.+58     	; 0x2746 <_fpadd_parts+0x20e>
    270c:	81 e0       	ldi	r24, 0x01	; 1
    270e:	81 83       	std	Z+1, r24	; 0x01
    2710:	33 82       	std	Z+3, r3	; 0x03
    2712:	22 82       	std	Z+2, r2	; 0x02
    2714:	88 27       	eor	r24, r24
    2716:	99 27       	eor	r25, r25
    2718:	dc 01       	movw	r26, r24
    271a:	82 1b       	sub	r24, r18
    271c:	93 0b       	sbc	r25, r19
    271e:	a4 0b       	sbc	r26, r20
    2720:	b5 0b       	sbc	r27, r21
    2722:	84 83       	std	Z+4, r24	; 0x04
    2724:	95 83       	std	Z+5, r25	; 0x05
    2726:	a6 83       	std	Z+6, r26	; 0x06
    2728:	b7 83       	std	Z+7, r27	; 0x07
    272a:	0d c0       	rjmp	.+26     	; 0x2746 <_fpadd_parts+0x20e>
    272c:	22 0f       	add	r18, r18
    272e:	33 1f       	adc	r19, r19
    2730:	44 1f       	adc	r20, r20
    2732:	55 1f       	adc	r21, r21
    2734:	24 83       	std	Z+4, r18	; 0x04
    2736:	35 83       	std	Z+5, r19	; 0x05
    2738:	46 83       	std	Z+6, r20	; 0x06
    273a:	57 83       	std	Z+7, r21	; 0x07
    273c:	82 81       	ldd	r24, Z+2	; 0x02
    273e:	93 81       	ldd	r25, Z+3	; 0x03
    2740:	01 97       	sbiw	r24, 0x01	; 1
    2742:	93 83       	std	Z+3, r25	; 0x03
    2744:	82 83       	std	Z+2, r24	; 0x02
    2746:	24 81       	ldd	r18, Z+4	; 0x04
    2748:	35 81       	ldd	r19, Z+5	; 0x05
    274a:	46 81       	ldd	r20, Z+6	; 0x06
    274c:	57 81       	ldd	r21, Z+7	; 0x07
    274e:	da 01       	movw	r26, r20
    2750:	c9 01       	movw	r24, r18
    2752:	01 97       	sbiw	r24, 0x01	; 1
    2754:	a1 09       	sbc	r26, r1
    2756:	b1 09       	sbc	r27, r1
    2758:	8f 5f       	subi	r24, 0xFF	; 255
    275a:	9f 4f       	sbci	r25, 0xFF	; 255
    275c:	af 4f       	sbci	r26, 0xFF	; 255
    275e:	bf 43       	sbci	r27, 0x3F	; 63
    2760:	28 f3       	brcs	.-54     	; 0x272c <_fpadd_parts+0x1f4>
    2762:	0b c0       	rjmp	.+22     	; 0x277a <_fpadd_parts+0x242>
    2764:	91 83       	std	Z+1, r25	; 0x01
    2766:	33 82       	std	Z+3, r3	; 0x03
    2768:	22 82       	std	Z+2, r2	; 0x02
    276a:	ea 0c       	add	r14, r10
    276c:	fb 1c       	adc	r15, r11
    276e:	0c 1d       	adc	r16, r12
    2770:	1d 1d       	adc	r17, r13
    2772:	e4 82       	std	Z+4, r14	; 0x04
    2774:	f5 82       	std	Z+5, r15	; 0x05
    2776:	06 83       	std	Z+6, r16	; 0x06
    2778:	17 83       	std	Z+7, r17	; 0x07
    277a:	83 e0       	ldi	r24, 0x03	; 3
    277c:	80 83       	st	Z, r24
    277e:	24 81       	ldd	r18, Z+4	; 0x04
    2780:	35 81       	ldd	r19, Z+5	; 0x05
    2782:	46 81       	ldd	r20, Z+6	; 0x06
    2784:	57 81       	ldd	r21, Z+7	; 0x07
    2786:	57 ff       	sbrs	r21, 7
    2788:	1a c0       	rjmp	.+52     	; 0x27be <_fpadd_parts+0x286>
    278a:	c9 01       	movw	r24, r18
    278c:	aa 27       	eor	r26, r26
    278e:	97 fd       	sbrc	r25, 7
    2790:	a0 95       	com	r26
    2792:	ba 2f       	mov	r27, r26
    2794:	81 70       	andi	r24, 0x01	; 1
    2796:	90 70       	andi	r25, 0x00	; 0
    2798:	a0 70       	andi	r26, 0x00	; 0
    279a:	b0 70       	andi	r27, 0x00	; 0
    279c:	56 95       	lsr	r21
    279e:	47 95       	ror	r20
    27a0:	37 95       	ror	r19
    27a2:	27 95       	ror	r18
    27a4:	82 2b       	or	r24, r18
    27a6:	93 2b       	or	r25, r19
    27a8:	a4 2b       	or	r26, r20
    27aa:	b5 2b       	or	r27, r21
    27ac:	84 83       	std	Z+4, r24	; 0x04
    27ae:	95 83       	std	Z+5, r25	; 0x05
    27b0:	a6 83       	std	Z+6, r26	; 0x06
    27b2:	b7 83       	std	Z+7, r27	; 0x07
    27b4:	82 81       	ldd	r24, Z+2	; 0x02
    27b6:	93 81       	ldd	r25, Z+3	; 0x03
    27b8:	01 96       	adiw	r24, 0x01	; 1
    27ba:	93 83       	std	Z+3, r25	; 0x03
    27bc:	82 83       	std	Z+2, r24	; 0x02
    27be:	df 01       	movw	r26, r30
    27c0:	01 c0       	rjmp	.+2      	; 0x27c4 <_fpadd_parts+0x28c>
    27c2:	d2 01       	movw	r26, r4
    27c4:	cd 01       	movw	r24, r26
    27c6:	cd b7       	in	r28, 0x3d	; 61
    27c8:	de b7       	in	r29, 0x3e	; 62
    27ca:	e2 e1       	ldi	r30, 0x12	; 18
    27cc:	0c 94 b8 1f 	jmp	0x3f70	; 0x3f70 <__epilogue_restores__>

000027d0 <__subsf3>:
    27d0:	a0 e2       	ldi	r26, 0x20	; 32
    27d2:	b0 e0       	ldi	r27, 0x00	; 0
    27d4:	ee ee       	ldi	r30, 0xEE	; 238
    27d6:	f3 e1       	ldi	r31, 0x13	; 19
    27d8:	0c 94 a8 1f 	jmp	0x3f50	; 0x3f50 <__prologue_saves__+0x18>
    27dc:	69 83       	std	Y+1, r22	; 0x01
    27de:	7a 83       	std	Y+2, r23	; 0x02
    27e0:	8b 83       	std	Y+3, r24	; 0x03
    27e2:	9c 83       	std	Y+4, r25	; 0x04
    27e4:	2d 83       	std	Y+5, r18	; 0x05
    27e6:	3e 83       	std	Y+6, r19	; 0x06
    27e8:	4f 83       	std	Y+7, r20	; 0x07
    27ea:	58 87       	std	Y+8, r21	; 0x08
    27ec:	e9 e0       	ldi	r30, 0x09	; 9
    27ee:	ee 2e       	mov	r14, r30
    27f0:	f1 2c       	mov	r15, r1
    27f2:	ec 0e       	add	r14, r28
    27f4:	fd 1e       	adc	r15, r29
    27f6:	ce 01       	movw	r24, r28
    27f8:	01 96       	adiw	r24, 0x01	; 1
    27fa:	b7 01       	movw	r22, r14
    27fc:	0e 94 24 12 	call	0x2448	; 0x2448 <__unpack_f>
    2800:	8e 01       	movw	r16, r28
    2802:	0f 5e       	subi	r16, 0xEF	; 239
    2804:	1f 4f       	sbci	r17, 0xFF	; 255
    2806:	ce 01       	movw	r24, r28
    2808:	05 96       	adiw	r24, 0x05	; 5
    280a:	b8 01       	movw	r22, r16
    280c:	0e 94 24 12 	call	0x2448	; 0x2448 <__unpack_f>
    2810:	8a 89       	ldd	r24, Y+18	; 0x12
    2812:	91 e0       	ldi	r25, 0x01	; 1
    2814:	89 27       	eor	r24, r25
    2816:	8a 8b       	std	Y+18, r24	; 0x12
    2818:	c7 01       	movw	r24, r14
    281a:	b8 01       	movw	r22, r16
    281c:	ae 01       	movw	r20, r28
    281e:	47 5e       	subi	r20, 0xE7	; 231
    2820:	5f 4f       	sbci	r21, 0xFF	; 255
    2822:	0e 94 9c 12 	call	0x2538	; 0x2538 <_fpadd_parts>
    2826:	0e 94 4f 11 	call	0x229e	; 0x229e <__pack_f>
    282a:	a0 96       	adiw	r28, 0x20	; 32
    282c:	e6 e0       	ldi	r30, 0x06	; 6
    282e:	0c 94 c4 1f 	jmp	0x3f88	; 0x3f88 <__epilogue_restores__+0x18>

00002832 <__addsf3>:
    2832:	a0 e2       	ldi	r26, 0x20	; 32
    2834:	b0 e0       	ldi	r27, 0x00	; 0
    2836:	ef e1       	ldi	r30, 0x1F	; 31
    2838:	f4 e1       	ldi	r31, 0x14	; 20
    283a:	0c 94 a8 1f 	jmp	0x3f50	; 0x3f50 <__prologue_saves__+0x18>
    283e:	69 83       	std	Y+1, r22	; 0x01
    2840:	7a 83       	std	Y+2, r23	; 0x02
    2842:	8b 83       	std	Y+3, r24	; 0x03
    2844:	9c 83       	std	Y+4, r25	; 0x04
    2846:	2d 83       	std	Y+5, r18	; 0x05
    2848:	3e 83       	std	Y+6, r19	; 0x06
    284a:	4f 83       	std	Y+7, r20	; 0x07
    284c:	58 87       	std	Y+8, r21	; 0x08
    284e:	f9 e0       	ldi	r31, 0x09	; 9
    2850:	ef 2e       	mov	r14, r31
    2852:	f1 2c       	mov	r15, r1
    2854:	ec 0e       	add	r14, r28
    2856:	fd 1e       	adc	r15, r29
    2858:	ce 01       	movw	r24, r28
    285a:	01 96       	adiw	r24, 0x01	; 1
    285c:	b7 01       	movw	r22, r14
    285e:	0e 94 24 12 	call	0x2448	; 0x2448 <__unpack_f>
    2862:	8e 01       	movw	r16, r28
    2864:	0f 5e       	subi	r16, 0xEF	; 239
    2866:	1f 4f       	sbci	r17, 0xFF	; 255
    2868:	ce 01       	movw	r24, r28
    286a:	05 96       	adiw	r24, 0x05	; 5
    286c:	b8 01       	movw	r22, r16
    286e:	0e 94 24 12 	call	0x2448	; 0x2448 <__unpack_f>
    2872:	c7 01       	movw	r24, r14
    2874:	b8 01       	movw	r22, r16
    2876:	ae 01       	movw	r20, r28
    2878:	47 5e       	subi	r20, 0xE7	; 231
    287a:	5f 4f       	sbci	r21, 0xFF	; 255
    287c:	0e 94 9c 12 	call	0x2538	; 0x2538 <_fpadd_parts>
    2880:	0e 94 4f 11 	call	0x229e	; 0x229e <__pack_f>
    2884:	a0 96       	adiw	r28, 0x20	; 32
    2886:	e6 e0       	ldi	r30, 0x06	; 6
    2888:	0c 94 c4 1f 	jmp	0x3f88	; 0x3f88 <__epilogue_restores__+0x18>

0000288c <__fpcmp_parts_f>:
    288c:	1f 93       	push	r17
    288e:	dc 01       	movw	r26, r24
    2890:	fb 01       	movw	r30, r22
    2892:	9c 91       	ld	r25, X
    2894:	92 30       	cpi	r25, 0x02	; 2
    2896:	08 f4       	brcc	.+2      	; 0x289a <__fpcmp_parts_f+0xe>
    2898:	47 c0       	rjmp	.+142    	; 0x2928 <__fpcmp_parts_f+0x9c>
    289a:	80 81       	ld	r24, Z
    289c:	82 30       	cpi	r24, 0x02	; 2
    289e:	08 f4       	brcc	.+2      	; 0x28a2 <__fpcmp_parts_f+0x16>
    28a0:	43 c0       	rjmp	.+134    	; 0x2928 <__fpcmp_parts_f+0x9c>
    28a2:	94 30       	cpi	r25, 0x04	; 4
    28a4:	51 f4       	brne	.+20     	; 0x28ba <__fpcmp_parts_f+0x2e>
    28a6:	11 96       	adiw	r26, 0x01	; 1
    28a8:	1c 91       	ld	r17, X
    28aa:	84 30       	cpi	r24, 0x04	; 4
    28ac:	99 f5       	brne	.+102    	; 0x2914 <__fpcmp_parts_f+0x88>
    28ae:	81 81       	ldd	r24, Z+1	; 0x01
    28b0:	68 2f       	mov	r22, r24
    28b2:	70 e0       	ldi	r23, 0x00	; 0
    28b4:	61 1b       	sub	r22, r17
    28b6:	71 09       	sbc	r23, r1
    28b8:	3f c0       	rjmp	.+126    	; 0x2938 <__fpcmp_parts_f+0xac>
    28ba:	84 30       	cpi	r24, 0x04	; 4
    28bc:	21 f0       	breq	.+8      	; 0x28c6 <__fpcmp_parts_f+0x3a>
    28be:	92 30       	cpi	r25, 0x02	; 2
    28c0:	31 f4       	brne	.+12     	; 0x28ce <__fpcmp_parts_f+0x42>
    28c2:	82 30       	cpi	r24, 0x02	; 2
    28c4:	b9 f1       	breq	.+110    	; 0x2934 <__fpcmp_parts_f+0xa8>
    28c6:	81 81       	ldd	r24, Z+1	; 0x01
    28c8:	88 23       	and	r24, r24
    28ca:	89 f1       	breq	.+98     	; 0x292e <__fpcmp_parts_f+0xa2>
    28cc:	2d c0       	rjmp	.+90     	; 0x2928 <__fpcmp_parts_f+0x9c>
    28ce:	11 96       	adiw	r26, 0x01	; 1
    28d0:	1c 91       	ld	r17, X
    28d2:	11 97       	sbiw	r26, 0x01	; 1
    28d4:	82 30       	cpi	r24, 0x02	; 2
    28d6:	f1 f0       	breq	.+60     	; 0x2914 <__fpcmp_parts_f+0x88>
    28d8:	81 81       	ldd	r24, Z+1	; 0x01
    28da:	18 17       	cp	r17, r24
    28dc:	d9 f4       	brne	.+54     	; 0x2914 <__fpcmp_parts_f+0x88>
    28de:	12 96       	adiw	r26, 0x02	; 2
    28e0:	2d 91       	ld	r18, X+
    28e2:	3c 91       	ld	r19, X
    28e4:	13 97       	sbiw	r26, 0x03	; 3
    28e6:	82 81       	ldd	r24, Z+2	; 0x02
    28e8:	93 81       	ldd	r25, Z+3	; 0x03
    28ea:	82 17       	cp	r24, r18
    28ec:	93 07       	cpc	r25, r19
    28ee:	94 f0       	brlt	.+36     	; 0x2914 <__fpcmp_parts_f+0x88>
    28f0:	28 17       	cp	r18, r24
    28f2:	39 07       	cpc	r19, r25
    28f4:	bc f0       	brlt	.+46     	; 0x2924 <__fpcmp_parts_f+0x98>
    28f6:	14 96       	adiw	r26, 0x04	; 4
    28f8:	8d 91       	ld	r24, X+
    28fa:	9d 91       	ld	r25, X+
    28fc:	0d 90       	ld	r0, X+
    28fe:	bc 91       	ld	r27, X
    2900:	a0 2d       	mov	r26, r0
    2902:	24 81       	ldd	r18, Z+4	; 0x04
    2904:	35 81       	ldd	r19, Z+5	; 0x05
    2906:	46 81       	ldd	r20, Z+6	; 0x06
    2908:	57 81       	ldd	r21, Z+7	; 0x07
    290a:	28 17       	cp	r18, r24
    290c:	39 07       	cpc	r19, r25
    290e:	4a 07       	cpc	r20, r26
    2910:	5b 07       	cpc	r21, r27
    2912:	18 f4       	brcc	.+6      	; 0x291a <__fpcmp_parts_f+0x8e>
    2914:	11 23       	and	r17, r17
    2916:	41 f0       	breq	.+16     	; 0x2928 <__fpcmp_parts_f+0x9c>
    2918:	0a c0       	rjmp	.+20     	; 0x292e <__fpcmp_parts_f+0xa2>
    291a:	82 17       	cp	r24, r18
    291c:	93 07       	cpc	r25, r19
    291e:	a4 07       	cpc	r26, r20
    2920:	b5 07       	cpc	r27, r21
    2922:	40 f4       	brcc	.+16     	; 0x2934 <__fpcmp_parts_f+0xa8>
    2924:	11 23       	and	r17, r17
    2926:	19 f0       	breq	.+6      	; 0x292e <__fpcmp_parts_f+0xa2>
    2928:	61 e0       	ldi	r22, 0x01	; 1
    292a:	70 e0       	ldi	r23, 0x00	; 0
    292c:	05 c0       	rjmp	.+10     	; 0x2938 <__fpcmp_parts_f+0xac>
    292e:	6f ef       	ldi	r22, 0xFF	; 255
    2930:	7f ef       	ldi	r23, 0xFF	; 255
    2932:	02 c0       	rjmp	.+4      	; 0x2938 <__fpcmp_parts_f+0xac>
    2934:	60 e0       	ldi	r22, 0x00	; 0
    2936:	70 e0       	ldi	r23, 0x00	; 0
    2938:	cb 01       	movw	r24, r22
    293a:	1f 91       	pop	r17
    293c:	08 95       	ret

0000293e <__fixsfsi>:
    293e:	ac e0       	ldi	r26, 0x0C	; 12
    2940:	b0 e0       	ldi	r27, 0x00	; 0
    2942:	e5 ea       	ldi	r30, 0xA5	; 165
    2944:	f4 e1       	ldi	r31, 0x14	; 20
    2946:	0c 94 ac 1f 	jmp	0x3f58	; 0x3f58 <__prologue_saves__+0x20>
    294a:	69 83       	std	Y+1, r22	; 0x01
    294c:	7a 83       	std	Y+2, r23	; 0x02
    294e:	8b 83       	std	Y+3, r24	; 0x03
    2950:	9c 83       	std	Y+4, r25	; 0x04
    2952:	ce 01       	movw	r24, r28
    2954:	01 96       	adiw	r24, 0x01	; 1
    2956:	be 01       	movw	r22, r28
    2958:	6b 5f       	subi	r22, 0xFB	; 251
    295a:	7f 4f       	sbci	r23, 0xFF	; 255
    295c:	0e 94 24 12 	call	0x2448	; 0x2448 <__unpack_f>
    2960:	8d 81       	ldd	r24, Y+5	; 0x05
    2962:	82 30       	cpi	r24, 0x02	; 2
    2964:	61 f1       	breq	.+88     	; 0x29be <__fixsfsi+0x80>
    2966:	82 30       	cpi	r24, 0x02	; 2
    2968:	50 f1       	brcs	.+84     	; 0x29be <__fixsfsi+0x80>
    296a:	84 30       	cpi	r24, 0x04	; 4
    296c:	21 f4       	brne	.+8      	; 0x2976 <__fixsfsi+0x38>
    296e:	8e 81       	ldd	r24, Y+6	; 0x06
    2970:	88 23       	and	r24, r24
    2972:	51 f1       	breq	.+84     	; 0x29c8 <__fixsfsi+0x8a>
    2974:	2e c0       	rjmp	.+92     	; 0x29d2 <__fixsfsi+0x94>
    2976:	2f 81       	ldd	r18, Y+7	; 0x07
    2978:	38 85       	ldd	r19, Y+8	; 0x08
    297a:	37 fd       	sbrc	r19, 7
    297c:	20 c0       	rjmp	.+64     	; 0x29be <__fixsfsi+0x80>
    297e:	6e 81       	ldd	r22, Y+6	; 0x06
    2980:	2f 31       	cpi	r18, 0x1F	; 31
    2982:	31 05       	cpc	r19, r1
    2984:	1c f0       	brlt	.+6      	; 0x298c <__fixsfsi+0x4e>
    2986:	66 23       	and	r22, r22
    2988:	f9 f0       	breq	.+62     	; 0x29c8 <__fixsfsi+0x8a>
    298a:	23 c0       	rjmp	.+70     	; 0x29d2 <__fixsfsi+0x94>
    298c:	8e e1       	ldi	r24, 0x1E	; 30
    298e:	90 e0       	ldi	r25, 0x00	; 0
    2990:	82 1b       	sub	r24, r18
    2992:	93 0b       	sbc	r25, r19
    2994:	29 85       	ldd	r18, Y+9	; 0x09
    2996:	3a 85       	ldd	r19, Y+10	; 0x0a
    2998:	4b 85       	ldd	r20, Y+11	; 0x0b
    299a:	5c 85       	ldd	r21, Y+12	; 0x0c
    299c:	04 c0       	rjmp	.+8      	; 0x29a6 <__fixsfsi+0x68>
    299e:	56 95       	lsr	r21
    29a0:	47 95       	ror	r20
    29a2:	37 95       	ror	r19
    29a4:	27 95       	ror	r18
    29a6:	8a 95       	dec	r24
    29a8:	d2 f7       	brpl	.-12     	; 0x299e <__fixsfsi+0x60>
    29aa:	66 23       	and	r22, r22
    29ac:	b1 f0       	breq	.+44     	; 0x29da <__fixsfsi+0x9c>
    29ae:	50 95       	com	r21
    29b0:	40 95       	com	r20
    29b2:	30 95       	com	r19
    29b4:	21 95       	neg	r18
    29b6:	3f 4f       	sbci	r19, 0xFF	; 255
    29b8:	4f 4f       	sbci	r20, 0xFF	; 255
    29ba:	5f 4f       	sbci	r21, 0xFF	; 255
    29bc:	0e c0       	rjmp	.+28     	; 0x29da <__fixsfsi+0x9c>
    29be:	20 e0       	ldi	r18, 0x00	; 0
    29c0:	30 e0       	ldi	r19, 0x00	; 0
    29c2:	40 e0       	ldi	r20, 0x00	; 0
    29c4:	50 e0       	ldi	r21, 0x00	; 0
    29c6:	09 c0       	rjmp	.+18     	; 0x29da <__fixsfsi+0x9c>
    29c8:	2f ef       	ldi	r18, 0xFF	; 255
    29ca:	3f ef       	ldi	r19, 0xFF	; 255
    29cc:	4f ef       	ldi	r20, 0xFF	; 255
    29ce:	5f e7       	ldi	r21, 0x7F	; 127
    29d0:	04 c0       	rjmp	.+8      	; 0x29da <__fixsfsi+0x9c>
    29d2:	20 e0       	ldi	r18, 0x00	; 0
    29d4:	30 e0       	ldi	r19, 0x00	; 0
    29d6:	40 e0       	ldi	r20, 0x00	; 0
    29d8:	50 e8       	ldi	r21, 0x80	; 128
    29da:	b9 01       	movw	r22, r18
    29dc:	ca 01       	movw	r24, r20
    29de:	2c 96       	adiw	r28, 0x0c	; 12
    29e0:	e2 e0       	ldi	r30, 0x02	; 2
    29e2:	0c 94 c8 1f 	jmp	0x3f90	; 0x3f90 <__epilogue_restores__+0x20>

000029e6 <GPIO_voidSetPinDir>:
    29e6:	81 30       	cpi	r24, 0x01	; 1
    29e8:	31 f1       	breq	.+76     	; 0x2a36 <GPIO_voidSetPinDir+0x50>
    29ea:	81 30       	cpi	r24, 0x01	; 1
    29ec:	38 f0       	brcs	.+14     	; 0x29fc <GPIO_voidSetPinDir+0x16>
    29ee:	82 30       	cpi	r24, 0x02	; 2
    29f0:	09 f4       	brne	.+2      	; 0x29f4 <GPIO_voidSetPinDir+0xe>
    29f2:	3e c0       	rjmp	.+124    	; 0x2a70 <GPIO_voidSetPinDir+0x8a>
    29f4:	83 30       	cpi	r24, 0x03	; 3
    29f6:	09 f0       	breq	.+2      	; 0x29fa <GPIO_voidSetPinDir+0x14>
    29f8:	72 c0       	rjmp	.+228    	; 0x2ade <GPIO_voidSetPinDir+0xf8>
    29fa:	56 c0       	rjmp	.+172    	; 0x2aa8 <GPIO_voidSetPinDir+0xc2>
    29fc:	44 23       	and	r20, r20
    29fe:	21 f0       	breq	.+8      	; 0x2a08 <GPIO_voidSetPinDir+0x22>
    2a00:	41 30       	cpi	r20, 0x01	; 1
    2a02:	09 f0       	breq	.+2      	; 0x2a06 <GPIO_voidSetPinDir+0x20>
    2a04:	6c c0       	rjmp	.+216    	; 0x2ade <GPIO_voidSetPinDir+0xf8>
    2a06:	0c c0       	rjmp	.+24     	; 0x2a20 <GPIO_voidSetPinDir+0x3a>
    2a08:	2a b3       	in	r18, 0x1a	; 26
    2a0a:	81 e0       	ldi	r24, 0x01	; 1
    2a0c:	90 e0       	ldi	r25, 0x00	; 0
    2a0e:	02 c0       	rjmp	.+4      	; 0x2a14 <GPIO_voidSetPinDir+0x2e>
    2a10:	88 0f       	add	r24, r24
    2a12:	99 1f       	adc	r25, r25
    2a14:	6a 95       	dec	r22
    2a16:	e2 f7       	brpl	.-8      	; 0x2a10 <GPIO_voidSetPinDir+0x2a>
    2a18:	80 95       	com	r24
    2a1a:	82 23       	and	r24, r18
    2a1c:	8a bb       	out	0x1a, r24	; 26
    2a1e:	08 95       	ret
    2a20:	2a b3       	in	r18, 0x1a	; 26
    2a22:	81 e0       	ldi	r24, 0x01	; 1
    2a24:	90 e0       	ldi	r25, 0x00	; 0
    2a26:	02 c0       	rjmp	.+4      	; 0x2a2c <GPIO_voidSetPinDir+0x46>
    2a28:	88 0f       	add	r24, r24
    2a2a:	99 1f       	adc	r25, r25
    2a2c:	6a 95       	dec	r22
    2a2e:	e2 f7       	brpl	.-8      	; 0x2a28 <GPIO_voidSetPinDir+0x42>
    2a30:	28 2b       	or	r18, r24
    2a32:	2a bb       	out	0x1a, r18	; 26
    2a34:	08 95       	ret
    2a36:	44 23       	and	r20, r20
    2a38:	21 f0       	breq	.+8      	; 0x2a42 <GPIO_voidSetPinDir+0x5c>
    2a3a:	41 30       	cpi	r20, 0x01	; 1
    2a3c:	09 f0       	breq	.+2      	; 0x2a40 <GPIO_voidSetPinDir+0x5a>
    2a3e:	4f c0       	rjmp	.+158    	; 0x2ade <GPIO_voidSetPinDir+0xf8>
    2a40:	0c c0       	rjmp	.+24     	; 0x2a5a <GPIO_voidSetPinDir+0x74>
    2a42:	27 b3       	in	r18, 0x17	; 23
    2a44:	81 e0       	ldi	r24, 0x01	; 1
    2a46:	90 e0       	ldi	r25, 0x00	; 0
    2a48:	02 c0       	rjmp	.+4      	; 0x2a4e <GPIO_voidSetPinDir+0x68>
    2a4a:	88 0f       	add	r24, r24
    2a4c:	99 1f       	adc	r25, r25
    2a4e:	6a 95       	dec	r22
    2a50:	e2 f7       	brpl	.-8      	; 0x2a4a <GPIO_voidSetPinDir+0x64>
    2a52:	80 95       	com	r24
    2a54:	82 23       	and	r24, r18
    2a56:	87 bb       	out	0x17, r24	; 23
    2a58:	08 95       	ret
    2a5a:	27 b3       	in	r18, 0x17	; 23
    2a5c:	81 e0       	ldi	r24, 0x01	; 1
    2a5e:	90 e0       	ldi	r25, 0x00	; 0
    2a60:	02 c0       	rjmp	.+4      	; 0x2a66 <GPIO_voidSetPinDir+0x80>
    2a62:	88 0f       	add	r24, r24
    2a64:	99 1f       	adc	r25, r25
    2a66:	6a 95       	dec	r22
    2a68:	e2 f7       	brpl	.-8      	; 0x2a62 <GPIO_voidSetPinDir+0x7c>
    2a6a:	28 2b       	or	r18, r24
    2a6c:	27 bb       	out	0x17, r18	; 23
    2a6e:	08 95       	ret
    2a70:	44 23       	and	r20, r20
    2a72:	19 f0       	breq	.+6      	; 0x2a7a <GPIO_voidSetPinDir+0x94>
    2a74:	41 30       	cpi	r20, 0x01	; 1
    2a76:	99 f5       	brne	.+102    	; 0x2ade <GPIO_voidSetPinDir+0xf8>
    2a78:	0c c0       	rjmp	.+24     	; 0x2a92 <GPIO_voidSetPinDir+0xac>
    2a7a:	24 b3       	in	r18, 0x14	; 20
    2a7c:	81 e0       	ldi	r24, 0x01	; 1
    2a7e:	90 e0       	ldi	r25, 0x00	; 0
    2a80:	02 c0       	rjmp	.+4      	; 0x2a86 <GPIO_voidSetPinDir+0xa0>
    2a82:	88 0f       	add	r24, r24
    2a84:	99 1f       	adc	r25, r25
    2a86:	6a 95       	dec	r22
    2a88:	e2 f7       	brpl	.-8      	; 0x2a82 <GPIO_voidSetPinDir+0x9c>
    2a8a:	80 95       	com	r24
    2a8c:	82 23       	and	r24, r18
    2a8e:	84 bb       	out	0x14, r24	; 20
    2a90:	08 95       	ret
    2a92:	24 b3       	in	r18, 0x14	; 20
    2a94:	81 e0       	ldi	r24, 0x01	; 1
    2a96:	90 e0       	ldi	r25, 0x00	; 0
    2a98:	02 c0       	rjmp	.+4      	; 0x2a9e <GPIO_voidSetPinDir+0xb8>
    2a9a:	88 0f       	add	r24, r24
    2a9c:	99 1f       	adc	r25, r25
    2a9e:	6a 95       	dec	r22
    2aa0:	e2 f7       	brpl	.-8      	; 0x2a9a <GPIO_voidSetPinDir+0xb4>
    2aa2:	28 2b       	or	r18, r24
    2aa4:	24 bb       	out	0x14, r18	; 20
    2aa6:	08 95       	ret
    2aa8:	44 23       	and	r20, r20
    2aaa:	19 f0       	breq	.+6      	; 0x2ab2 <GPIO_voidSetPinDir+0xcc>
    2aac:	41 30       	cpi	r20, 0x01	; 1
    2aae:	b9 f4       	brne	.+46     	; 0x2ade <GPIO_voidSetPinDir+0xf8>
    2ab0:	0c c0       	rjmp	.+24     	; 0x2aca <GPIO_voidSetPinDir+0xe4>
    2ab2:	21 b3       	in	r18, 0x11	; 17
    2ab4:	81 e0       	ldi	r24, 0x01	; 1
    2ab6:	90 e0       	ldi	r25, 0x00	; 0
    2ab8:	02 c0       	rjmp	.+4      	; 0x2abe <GPIO_voidSetPinDir+0xd8>
    2aba:	88 0f       	add	r24, r24
    2abc:	99 1f       	adc	r25, r25
    2abe:	6a 95       	dec	r22
    2ac0:	e2 f7       	brpl	.-8      	; 0x2aba <GPIO_voidSetPinDir+0xd4>
    2ac2:	80 95       	com	r24
    2ac4:	82 23       	and	r24, r18
    2ac6:	81 bb       	out	0x11, r24	; 17
    2ac8:	08 95       	ret
    2aca:	21 b3       	in	r18, 0x11	; 17
    2acc:	81 e0       	ldi	r24, 0x01	; 1
    2ace:	90 e0       	ldi	r25, 0x00	; 0
    2ad0:	02 c0       	rjmp	.+4      	; 0x2ad6 <GPIO_voidSetPinDir+0xf0>
    2ad2:	88 0f       	add	r24, r24
    2ad4:	99 1f       	adc	r25, r25
    2ad6:	6a 95       	dec	r22
    2ad8:	e2 f7       	brpl	.-8      	; 0x2ad2 <GPIO_voidSetPinDir+0xec>
    2ada:	28 2b       	or	r18, r24
    2adc:	21 bb       	out	0x11, r18	; 17
    2ade:	08 95       	ret

00002ae0 <GPIO_voidSetPinVal>:
    2ae0:	81 30       	cpi	r24, 0x01	; 1
    2ae2:	31 f1       	breq	.+76     	; 0x2b30 <GPIO_voidSetPinVal+0x50>
    2ae4:	81 30       	cpi	r24, 0x01	; 1
    2ae6:	38 f0       	brcs	.+14     	; 0x2af6 <GPIO_voidSetPinVal+0x16>
    2ae8:	82 30       	cpi	r24, 0x02	; 2
    2aea:	09 f4       	brne	.+2      	; 0x2aee <GPIO_voidSetPinVal+0xe>
    2aec:	3e c0       	rjmp	.+124    	; 0x2b6a <GPIO_voidSetPinVal+0x8a>
    2aee:	83 30       	cpi	r24, 0x03	; 3
    2af0:	09 f0       	breq	.+2      	; 0x2af4 <GPIO_voidSetPinVal+0x14>
    2af2:	72 c0       	rjmp	.+228    	; 0x2bd8 <GPIO_voidSetPinVal+0xf8>
    2af4:	56 c0       	rjmp	.+172    	; 0x2ba2 <GPIO_voidSetPinVal+0xc2>
    2af6:	44 23       	and	r20, r20
    2af8:	21 f0       	breq	.+8      	; 0x2b02 <GPIO_voidSetPinVal+0x22>
    2afa:	41 30       	cpi	r20, 0x01	; 1
    2afc:	09 f0       	breq	.+2      	; 0x2b00 <GPIO_voidSetPinVal+0x20>
    2afe:	6c c0       	rjmp	.+216    	; 0x2bd8 <GPIO_voidSetPinVal+0xf8>
    2b00:	0c c0       	rjmp	.+24     	; 0x2b1a <GPIO_voidSetPinVal+0x3a>
    2b02:	2b b3       	in	r18, 0x1b	; 27
    2b04:	81 e0       	ldi	r24, 0x01	; 1
    2b06:	90 e0       	ldi	r25, 0x00	; 0
    2b08:	02 c0       	rjmp	.+4      	; 0x2b0e <GPIO_voidSetPinVal+0x2e>
    2b0a:	88 0f       	add	r24, r24
    2b0c:	99 1f       	adc	r25, r25
    2b0e:	6a 95       	dec	r22
    2b10:	e2 f7       	brpl	.-8      	; 0x2b0a <GPIO_voidSetPinVal+0x2a>
    2b12:	80 95       	com	r24
    2b14:	82 23       	and	r24, r18
    2b16:	8b bb       	out	0x1b, r24	; 27
    2b18:	08 95       	ret
    2b1a:	2b b3       	in	r18, 0x1b	; 27
    2b1c:	81 e0       	ldi	r24, 0x01	; 1
    2b1e:	90 e0       	ldi	r25, 0x00	; 0
    2b20:	02 c0       	rjmp	.+4      	; 0x2b26 <GPIO_voidSetPinVal+0x46>
    2b22:	88 0f       	add	r24, r24
    2b24:	99 1f       	adc	r25, r25
    2b26:	6a 95       	dec	r22
    2b28:	e2 f7       	brpl	.-8      	; 0x2b22 <GPIO_voidSetPinVal+0x42>
    2b2a:	28 2b       	or	r18, r24
    2b2c:	2b bb       	out	0x1b, r18	; 27
    2b2e:	08 95       	ret
    2b30:	44 23       	and	r20, r20
    2b32:	21 f0       	breq	.+8      	; 0x2b3c <GPIO_voidSetPinVal+0x5c>
    2b34:	41 30       	cpi	r20, 0x01	; 1
    2b36:	09 f0       	breq	.+2      	; 0x2b3a <GPIO_voidSetPinVal+0x5a>
    2b38:	4f c0       	rjmp	.+158    	; 0x2bd8 <GPIO_voidSetPinVal+0xf8>
    2b3a:	0c c0       	rjmp	.+24     	; 0x2b54 <GPIO_voidSetPinVal+0x74>
    2b3c:	28 b3       	in	r18, 0x18	; 24
    2b3e:	81 e0       	ldi	r24, 0x01	; 1
    2b40:	90 e0       	ldi	r25, 0x00	; 0
    2b42:	02 c0       	rjmp	.+4      	; 0x2b48 <GPIO_voidSetPinVal+0x68>
    2b44:	88 0f       	add	r24, r24
    2b46:	99 1f       	adc	r25, r25
    2b48:	6a 95       	dec	r22
    2b4a:	e2 f7       	brpl	.-8      	; 0x2b44 <GPIO_voidSetPinVal+0x64>
    2b4c:	80 95       	com	r24
    2b4e:	82 23       	and	r24, r18
    2b50:	88 bb       	out	0x18, r24	; 24
    2b52:	08 95       	ret
    2b54:	28 b3       	in	r18, 0x18	; 24
    2b56:	81 e0       	ldi	r24, 0x01	; 1
    2b58:	90 e0       	ldi	r25, 0x00	; 0
    2b5a:	02 c0       	rjmp	.+4      	; 0x2b60 <GPIO_voidSetPinVal+0x80>
    2b5c:	88 0f       	add	r24, r24
    2b5e:	99 1f       	adc	r25, r25
    2b60:	6a 95       	dec	r22
    2b62:	e2 f7       	brpl	.-8      	; 0x2b5c <GPIO_voidSetPinVal+0x7c>
    2b64:	28 2b       	or	r18, r24
    2b66:	28 bb       	out	0x18, r18	; 24
    2b68:	08 95       	ret
    2b6a:	44 23       	and	r20, r20
    2b6c:	19 f0       	breq	.+6      	; 0x2b74 <GPIO_voidSetPinVal+0x94>
    2b6e:	41 30       	cpi	r20, 0x01	; 1
    2b70:	99 f5       	brne	.+102    	; 0x2bd8 <GPIO_voidSetPinVal+0xf8>
    2b72:	0c c0       	rjmp	.+24     	; 0x2b8c <GPIO_voidSetPinVal+0xac>
    2b74:	25 b3       	in	r18, 0x15	; 21
    2b76:	81 e0       	ldi	r24, 0x01	; 1
    2b78:	90 e0       	ldi	r25, 0x00	; 0
    2b7a:	02 c0       	rjmp	.+4      	; 0x2b80 <GPIO_voidSetPinVal+0xa0>
    2b7c:	88 0f       	add	r24, r24
    2b7e:	99 1f       	adc	r25, r25
    2b80:	6a 95       	dec	r22
    2b82:	e2 f7       	brpl	.-8      	; 0x2b7c <GPIO_voidSetPinVal+0x9c>
    2b84:	80 95       	com	r24
    2b86:	82 23       	and	r24, r18
    2b88:	85 bb       	out	0x15, r24	; 21
    2b8a:	08 95       	ret
    2b8c:	25 b3       	in	r18, 0x15	; 21
    2b8e:	81 e0       	ldi	r24, 0x01	; 1
    2b90:	90 e0       	ldi	r25, 0x00	; 0
    2b92:	02 c0       	rjmp	.+4      	; 0x2b98 <GPIO_voidSetPinVal+0xb8>
    2b94:	88 0f       	add	r24, r24
    2b96:	99 1f       	adc	r25, r25
    2b98:	6a 95       	dec	r22
    2b9a:	e2 f7       	brpl	.-8      	; 0x2b94 <GPIO_voidSetPinVal+0xb4>
    2b9c:	28 2b       	or	r18, r24
    2b9e:	25 bb       	out	0x15, r18	; 21
    2ba0:	08 95       	ret
    2ba2:	44 23       	and	r20, r20
    2ba4:	19 f0       	breq	.+6      	; 0x2bac <GPIO_voidSetPinVal+0xcc>
    2ba6:	41 30       	cpi	r20, 0x01	; 1
    2ba8:	b9 f4       	brne	.+46     	; 0x2bd8 <GPIO_voidSetPinVal+0xf8>
    2baa:	0c c0       	rjmp	.+24     	; 0x2bc4 <GPIO_voidSetPinVal+0xe4>
    2bac:	22 b3       	in	r18, 0x12	; 18
    2bae:	81 e0       	ldi	r24, 0x01	; 1
    2bb0:	90 e0       	ldi	r25, 0x00	; 0
    2bb2:	02 c0       	rjmp	.+4      	; 0x2bb8 <GPIO_voidSetPinVal+0xd8>
    2bb4:	88 0f       	add	r24, r24
    2bb6:	99 1f       	adc	r25, r25
    2bb8:	6a 95       	dec	r22
    2bba:	e2 f7       	brpl	.-8      	; 0x2bb4 <GPIO_voidSetPinVal+0xd4>
    2bbc:	80 95       	com	r24
    2bbe:	82 23       	and	r24, r18
    2bc0:	82 bb       	out	0x12, r24	; 18
    2bc2:	08 95       	ret
    2bc4:	22 b3       	in	r18, 0x12	; 18
    2bc6:	81 e0       	ldi	r24, 0x01	; 1
    2bc8:	90 e0       	ldi	r25, 0x00	; 0
    2bca:	02 c0       	rjmp	.+4      	; 0x2bd0 <GPIO_voidSetPinVal+0xf0>
    2bcc:	88 0f       	add	r24, r24
    2bce:	99 1f       	adc	r25, r25
    2bd0:	6a 95       	dec	r22
    2bd2:	e2 f7       	brpl	.-8      	; 0x2bcc <GPIO_voidSetPinVal+0xec>
    2bd4:	28 2b       	or	r18, r24
    2bd6:	22 bb       	out	0x12, r18	; 18
    2bd8:	08 95       	ret

00002bda <GPIO_voidTogglePin>:
    2bda:	81 30       	cpi	r24, 0x01	; 1
    2bdc:	91 f0       	breq	.+36     	; 0x2c02 <GPIO_voidTogglePin+0x28>
    2bde:	81 30       	cpi	r24, 0x01	; 1
    2be0:	28 f0       	brcs	.+10     	; 0x2bec <GPIO_voidTogglePin+0x12>
    2be2:	82 30       	cpi	r24, 0x02	; 2
    2be4:	c9 f0       	breq	.+50     	; 0x2c18 <GPIO_voidTogglePin+0x3e>
    2be6:	83 30       	cpi	r24, 0x03	; 3
    2be8:	61 f5       	brne	.+88     	; 0x2c42 <GPIO_voidTogglePin+0x68>
    2bea:	21 c0       	rjmp	.+66     	; 0x2c2e <GPIO_voidTogglePin+0x54>
    2bec:	2b b3       	in	r18, 0x1b	; 27
    2bee:	81 e0       	ldi	r24, 0x01	; 1
    2bf0:	90 e0       	ldi	r25, 0x00	; 0
    2bf2:	02 c0       	rjmp	.+4      	; 0x2bf8 <GPIO_voidTogglePin+0x1e>
    2bf4:	88 0f       	add	r24, r24
    2bf6:	99 1f       	adc	r25, r25
    2bf8:	6a 95       	dec	r22
    2bfa:	e2 f7       	brpl	.-8      	; 0x2bf4 <GPIO_voidTogglePin+0x1a>
    2bfc:	28 27       	eor	r18, r24
    2bfe:	2b bb       	out	0x1b, r18	; 27
    2c00:	08 95       	ret
    2c02:	28 b3       	in	r18, 0x18	; 24
    2c04:	81 e0       	ldi	r24, 0x01	; 1
    2c06:	90 e0       	ldi	r25, 0x00	; 0
    2c08:	02 c0       	rjmp	.+4      	; 0x2c0e <GPIO_voidTogglePin+0x34>
    2c0a:	88 0f       	add	r24, r24
    2c0c:	99 1f       	adc	r25, r25
    2c0e:	6a 95       	dec	r22
    2c10:	e2 f7       	brpl	.-8      	; 0x2c0a <GPIO_voidTogglePin+0x30>
    2c12:	28 27       	eor	r18, r24
    2c14:	28 bb       	out	0x18, r18	; 24
    2c16:	08 95       	ret
    2c18:	25 b3       	in	r18, 0x15	; 21
    2c1a:	81 e0       	ldi	r24, 0x01	; 1
    2c1c:	90 e0       	ldi	r25, 0x00	; 0
    2c1e:	02 c0       	rjmp	.+4      	; 0x2c24 <GPIO_voidTogglePin+0x4a>
    2c20:	88 0f       	add	r24, r24
    2c22:	99 1f       	adc	r25, r25
    2c24:	6a 95       	dec	r22
    2c26:	e2 f7       	brpl	.-8      	; 0x2c20 <GPIO_voidTogglePin+0x46>
    2c28:	28 27       	eor	r18, r24
    2c2a:	25 bb       	out	0x15, r18	; 21
    2c2c:	08 95       	ret
    2c2e:	22 b3       	in	r18, 0x12	; 18
    2c30:	81 e0       	ldi	r24, 0x01	; 1
    2c32:	90 e0       	ldi	r25, 0x00	; 0
    2c34:	02 c0       	rjmp	.+4      	; 0x2c3a <GPIO_voidTogglePin+0x60>
    2c36:	88 0f       	add	r24, r24
    2c38:	99 1f       	adc	r25, r25
    2c3a:	6a 95       	dec	r22
    2c3c:	e2 f7       	brpl	.-8      	; 0x2c36 <GPIO_voidTogglePin+0x5c>
    2c3e:	28 27       	eor	r18, r24
    2c40:	22 bb       	out	0x12, r18	; 18
    2c42:	08 95       	ret

00002c44 <GPIO_voidSetPortDir>:
    2c44:	81 30       	cpi	r24, 0x01	; 1
    2c46:	49 f0       	breq	.+18     	; 0x2c5a <GPIO_voidSetPortDir+0x16>
    2c48:	81 30       	cpi	r24, 0x01	; 1
    2c4a:	28 f0       	brcs	.+10     	; 0x2c56 <GPIO_voidSetPortDir+0x12>
    2c4c:	82 30       	cpi	r24, 0x02	; 2
    2c4e:	39 f0       	breq	.+14     	; 0x2c5e <GPIO_voidSetPortDir+0x1a>
    2c50:	83 30       	cpi	r24, 0x03	; 3
    2c52:	41 f4       	brne	.+16     	; 0x2c64 <GPIO_voidSetPortDir+0x20>
    2c54:	06 c0       	rjmp	.+12     	; 0x2c62 <GPIO_voidSetPortDir+0x1e>
    2c56:	6a bb       	out	0x1a, r22	; 26
    2c58:	08 95       	ret
    2c5a:	67 bb       	out	0x17, r22	; 23
    2c5c:	08 95       	ret
    2c5e:	64 bb       	out	0x14, r22	; 20
    2c60:	08 95       	ret
    2c62:	61 bb       	out	0x11, r22	; 17
    2c64:	08 95       	ret

00002c66 <GPIO_voidSetPortVal>:
    2c66:	81 30       	cpi	r24, 0x01	; 1
    2c68:	49 f0       	breq	.+18     	; 0x2c7c <GPIO_voidSetPortVal+0x16>
    2c6a:	81 30       	cpi	r24, 0x01	; 1
    2c6c:	28 f0       	brcs	.+10     	; 0x2c78 <GPIO_voidSetPortVal+0x12>
    2c6e:	82 30       	cpi	r24, 0x02	; 2
    2c70:	39 f0       	breq	.+14     	; 0x2c80 <GPIO_voidSetPortVal+0x1a>
    2c72:	83 30       	cpi	r24, 0x03	; 3
    2c74:	41 f4       	brne	.+16     	; 0x2c86 <GPIO_voidSetPortVal+0x20>
    2c76:	06 c0       	rjmp	.+12     	; 0x2c84 <GPIO_voidSetPortVal+0x1e>
    2c78:	6b bb       	out	0x1b, r22	; 27
    2c7a:	08 95       	ret
    2c7c:	68 bb       	out	0x18, r22	; 24
    2c7e:	08 95       	ret
    2c80:	65 bb       	out	0x15, r22	; 21
    2c82:	08 95       	ret
    2c84:	62 bb       	out	0x12, r22	; 18
    2c86:	08 95       	ret

00002c88 <GPIO_voidTogglePort>:
    2c88:	81 30       	cpi	r24, 0x01	; 1
    2c8a:	59 f0       	breq	.+22     	; 0x2ca2 <GPIO_voidTogglePort+0x1a>
    2c8c:	81 30       	cpi	r24, 0x01	; 1
    2c8e:	28 f0       	brcs	.+10     	; 0x2c9a <GPIO_voidTogglePort+0x12>
    2c90:	82 30       	cpi	r24, 0x02	; 2
    2c92:	59 f0       	breq	.+22     	; 0x2caa <GPIO_voidTogglePort+0x22>
    2c94:	83 30       	cpi	r24, 0x03	; 3
    2c96:	81 f4       	brne	.+32     	; 0x2cb8 <GPIO_voidTogglePort+0x30>
    2c98:	0c c0       	rjmp	.+24     	; 0x2cb2 <GPIO_voidTogglePort+0x2a>
    2c9a:	8b b3       	in	r24, 0x1b	; 27
    2c9c:	80 95       	com	r24
    2c9e:	8b bb       	out	0x1b, r24	; 27
    2ca0:	08 95       	ret
    2ca2:	88 b3       	in	r24, 0x18	; 24
    2ca4:	80 95       	com	r24
    2ca6:	88 bb       	out	0x18, r24	; 24
    2ca8:	08 95       	ret
    2caa:	85 b3       	in	r24, 0x15	; 21
    2cac:	80 95       	com	r24
    2cae:	85 bb       	out	0x15, r24	; 21
    2cb0:	08 95       	ret
    2cb2:	82 b3       	in	r24, 0x12	; 18
    2cb4:	80 95       	com	r24
    2cb6:	82 bb       	out	0x12, r24	; 18
    2cb8:	08 95       	ret

00002cba <GPIO_u8ReadPin>:
    2cba:	81 30       	cpi	r24, 0x01	; 1
    2cbc:	51 f0       	breq	.+20     	; 0x2cd2 <GPIO_u8ReadPin+0x18>
    2cbe:	81 30       	cpi	r24, 0x01	; 1
    2cc0:	30 f0       	brcs	.+12     	; 0x2cce <GPIO_u8ReadPin+0x14>
    2cc2:	82 30       	cpi	r24, 0x02	; 2
    2cc4:	41 f0       	breq	.+16     	; 0x2cd6 <GPIO_u8ReadPin+0x1c>
    2cc6:	83 30       	cpi	r24, 0x03	; 3
    2cc8:	79 f0       	breq	.+30     	; 0x2ce8 <GPIO_u8ReadPin+0x2e>
    2cca:	80 e0       	ldi	r24, 0x00	; 0
    2ccc:	08 95       	ret
    2cce:	89 b3       	in	r24, 0x19	; 25
    2cd0:	03 c0       	rjmp	.+6      	; 0x2cd8 <GPIO_u8ReadPin+0x1e>
    2cd2:	86 b3       	in	r24, 0x16	; 22
    2cd4:	01 c0       	rjmp	.+2      	; 0x2cd8 <GPIO_u8ReadPin+0x1e>
    2cd6:	83 b3       	in	r24, 0x13	; 19
    2cd8:	90 e0       	ldi	r25, 0x00	; 0
    2cda:	02 c0       	rjmp	.+4      	; 0x2ce0 <GPIO_u8ReadPin+0x26>
    2cdc:	95 95       	asr	r25
    2cde:	87 95       	ror	r24
    2ce0:	6a 95       	dec	r22
    2ce2:	e2 f7       	brpl	.-8      	; 0x2cdc <GPIO_u8ReadPin+0x22>
    2ce4:	81 70       	andi	r24, 0x01	; 1
    2ce6:	08 95       	ret
    2ce8:	80 b3       	in	r24, 0x10	; 16
    2cea:	90 e0       	ldi	r25, 0x00	; 0
    2cec:	02 c0       	rjmp	.+4      	; 0x2cf2 <GPIO_u8ReadPin+0x38>
    2cee:	95 95       	asr	r25
    2cf0:	87 95       	ror	r24
    2cf2:	6a 95       	dec	r22
    2cf4:	e2 f7       	brpl	.-8      	; 0x2cee <GPIO_u8ReadPin+0x34>
    2cf6:	81 70       	andi	r24, 0x01	; 1
    2cf8:	08 95       	ret

00002cfa <GPIO_u8ReadPort>:
    2cfa:	81 30       	cpi	r24, 0x01	; 1
    2cfc:	51 f0       	breq	.+20     	; 0x2d12 <GPIO_u8ReadPort+0x18>
    2cfe:	81 30       	cpi	r24, 0x01	; 1
    2d00:	30 f0       	brcs	.+12     	; 0x2d0e <GPIO_u8ReadPort+0x14>
    2d02:	82 30       	cpi	r24, 0x02	; 2
    2d04:	41 f0       	breq	.+16     	; 0x2d16 <GPIO_u8ReadPort+0x1c>
    2d06:	83 30       	cpi	r24, 0x03	; 3
    2d08:	41 f0       	breq	.+16     	; 0x2d1a <GPIO_u8ReadPort+0x20>
    2d0a:	80 e0       	ldi	r24, 0x00	; 0
    2d0c:	08 95       	ret
    2d0e:	89 b3       	in	r24, 0x19	; 25
    2d10:	08 95       	ret
    2d12:	86 b3       	in	r24, 0x16	; 22
    2d14:	08 95       	ret
    2d16:	83 b3       	in	r24, 0x13	; 19
    2d18:	08 95       	ret
    2d1a:	80 b3       	in	r24, 0x10	; 16
    2d1c:	08 95       	ret

00002d1e <GPIO_voidSet_LOW_NibbleDir>:
    2d1e:	81 30       	cpi	r24, 0x01	; 1
    2d20:	89 f1       	breq	.+98     	; 0x2d84 <GPIO_voidSet_LOW_NibbleDir+0x66>
    2d22:	81 30       	cpi	r24, 0x01	; 1
    2d24:	38 f0       	brcs	.+14     	; 0x2d34 <GPIO_voidSet_LOW_NibbleDir+0x16>
    2d26:	82 30       	cpi	r24, 0x02	; 2
    2d28:	09 f4       	brne	.+2      	; 0x2d2c <GPIO_voidSet_LOW_NibbleDir+0xe>
    2d2a:	54 c0       	rjmp	.+168    	; 0x2dd4 <GPIO_voidSet_LOW_NibbleDir+0xb6>
    2d2c:	83 30       	cpi	r24, 0x03	; 3
    2d2e:	09 f0       	breq	.+2      	; 0x2d32 <GPIO_voidSet_LOW_NibbleDir+0x14>
    2d30:	a9 c0       	rjmp	.+338    	; 0x2e84 <GPIO_voidSet_LOW_NibbleDir+0x166>
    2d32:	7a c0       	rjmp	.+244    	; 0x2e28 <GPIO_voidSet_LOW_NibbleDir+0x10a>
    2d34:	66 23       	and	r22, r22
    2d36:	21 f0       	breq	.+8      	; 0x2d40 <GPIO_voidSet_LOW_NibbleDir+0x22>
    2d38:	61 30       	cpi	r22, 0x01	; 1
    2d3a:	09 f0       	breq	.+2      	; 0x2d3e <GPIO_voidSet_LOW_NibbleDir+0x20>
    2d3c:	a3 c0       	rjmp	.+326    	; 0x2e84 <GPIO_voidSet_LOW_NibbleDir+0x166>
    2d3e:	11 c0       	rjmp	.+34     	; 0x2d62 <GPIO_voidSet_LOW_NibbleDir+0x44>
    2d40:	80 e0       	ldi	r24, 0x00	; 0
    2d42:	60 e0       	ldi	r22, 0x00	; 0
    2d44:	40 e0       	ldi	r20, 0x00	; 0
    2d46:	0e 94 f3 14 	call	0x29e6	; 0x29e6 <GPIO_voidSetPinDir>
    2d4a:	80 e0       	ldi	r24, 0x00	; 0
    2d4c:	61 e0       	ldi	r22, 0x01	; 1
    2d4e:	40 e0       	ldi	r20, 0x00	; 0
    2d50:	0e 94 f3 14 	call	0x29e6	; 0x29e6 <GPIO_voidSetPinDir>
    2d54:	80 e0       	ldi	r24, 0x00	; 0
    2d56:	62 e0       	ldi	r22, 0x02	; 2
    2d58:	40 e0       	ldi	r20, 0x00	; 0
    2d5a:	0e 94 f3 14 	call	0x29e6	; 0x29e6 <GPIO_voidSetPinDir>
    2d5e:	80 e0       	ldi	r24, 0x00	; 0
    2d60:	78 c0       	rjmp	.+240    	; 0x2e52 <GPIO_voidSet_LOW_NibbleDir+0x134>
    2d62:	80 e0       	ldi	r24, 0x00	; 0
    2d64:	60 e0       	ldi	r22, 0x00	; 0
    2d66:	41 e0       	ldi	r20, 0x01	; 1
    2d68:	0e 94 f3 14 	call	0x29e6	; 0x29e6 <GPIO_voidSetPinDir>
    2d6c:	80 e0       	ldi	r24, 0x00	; 0
    2d6e:	61 e0       	ldi	r22, 0x01	; 1
    2d70:	41 e0       	ldi	r20, 0x01	; 1
    2d72:	0e 94 f3 14 	call	0x29e6	; 0x29e6 <GPIO_voidSetPinDir>
    2d76:	80 e0       	ldi	r24, 0x00	; 0
    2d78:	62 e0       	ldi	r22, 0x02	; 2
    2d7a:	41 e0       	ldi	r20, 0x01	; 1
    2d7c:	0e 94 f3 14 	call	0x29e6	; 0x29e6 <GPIO_voidSetPinDir>
    2d80:	80 e0       	ldi	r24, 0x00	; 0
    2d82:	4f c0       	rjmp	.+158    	; 0x2e22 <GPIO_voidSet_LOW_NibbleDir+0x104>
    2d84:	66 23       	and	r22, r22
    2d86:	21 f0       	breq	.+8      	; 0x2d90 <GPIO_voidSet_LOW_NibbleDir+0x72>
    2d88:	61 30       	cpi	r22, 0x01	; 1
    2d8a:	09 f0       	breq	.+2      	; 0x2d8e <GPIO_voidSet_LOW_NibbleDir+0x70>
    2d8c:	7b c0       	rjmp	.+246    	; 0x2e84 <GPIO_voidSet_LOW_NibbleDir+0x166>
    2d8e:	11 c0       	rjmp	.+34     	; 0x2db2 <GPIO_voidSet_LOW_NibbleDir+0x94>
    2d90:	81 e0       	ldi	r24, 0x01	; 1
    2d92:	60 e0       	ldi	r22, 0x00	; 0
    2d94:	40 e0       	ldi	r20, 0x00	; 0
    2d96:	0e 94 f3 14 	call	0x29e6	; 0x29e6 <GPIO_voidSetPinDir>
    2d9a:	81 e0       	ldi	r24, 0x01	; 1
    2d9c:	61 e0       	ldi	r22, 0x01	; 1
    2d9e:	40 e0       	ldi	r20, 0x00	; 0
    2da0:	0e 94 f3 14 	call	0x29e6	; 0x29e6 <GPIO_voidSetPinDir>
    2da4:	81 e0       	ldi	r24, 0x01	; 1
    2da6:	62 e0       	ldi	r22, 0x02	; 2
    2da8:	40 e0       	ldi	r20, 0x00	; 0
    2daa:	0e 94 f3 14 	call	0x29e6	; 0x29e6 <GPIO_voidSetPinDir>
    2dae:	81 e0       	ldi	r24, 0x01	; 1
    2db0:	50 c0       	rjmp	.+160    	; 0x2e52 <GPIO_voidSet_LOW_NibbleDir+0x134>
    2db2:	81 e0       	ldi	r24, 0x01	; 1
    2db4:	60 e0       	ldi	r22, 0x00	; 0
    2db6:	41 e0       	ldi	r20, 0x01	; 1
    2db8:	0e 94 f3 14 	call	0x29e6	; 0x29e6 <GPIO_voidSetPinDir>
    2dbc:	81 e0       	ldi	r24, 0x01	; 1
    2dbe:	61 e0       	ldi	r22, 0x01	; 1
    2dc0:	41 e0       	ldi	r20, 0x01	; 1
    2dc2:	0e 94 f3 14 	call	0x29e6	; 0x29e6 <GPIO_voidSetPinDir>
    2dc6:	81 e0       	ldi	r24, 0x01	; 1
    2dc8:	62 e0       	ldi	r22, 0x02	; 2
    2dca:	41 e0       	ldi	r20, 0x01	; 1
    2dcc:	0e 94 f3 14 	call	0x29e6	; 0x29e6 <GPIO_voidSetPinDir>
    2dd0:	81 e0       	ldi	r24, 0x01	; 1
    2dd2:	27 c0       	rjmp	.+78     	; 0x2e22 <GPIO_voidSet_LOW_NibbleDir+0x104>
    2dd4:	66 23       	and	r22, r22
    2dd6:	21 f0       	breq	.+8      	; 0x2de0 <GPIO_voidSet_LOW_NibbleDir+0xc2>
    2dd8:	61 30       	cpi	r22, 0x01	; 1
    2dda:	09 f0       	breq	.+2      	; 0x2dde <GPIO_voidSet_LOW_NibbleDir+0xc0>
    2ddc:	53 c0       	rjmp	.+166    	; 0x2e84 <GPIO_voidSet_LOW_NibbleDir+0x166>
    2dde:	11 c0       	rjmp	.+34     	; 0x2e02 <GPIO_voidSet_LOW_NibbleDir+0xe4>
    2de0:	82 e0       	ldi	r24, 0x02	; 2
    2de2:	60 e0       	ldi	r22, 0x00	; 0
    2de4:	40 e0       	ldi	r20, 0x00	; 0
    2de6:	0e 94 f3 14 	call	0x29e6	; 0x29e6 <GPIO_voidSetPinDir>
    2dea:	82 e0       	ldi	r24, 0x02	; 2
    2dec:	61 e0       	ldi	r22, 0x01	; 1
    2dee:	40 e0       	ldi	r20, 0x00	; 0
    2df0:	0e 94 f3 14 	call	0x29e6	; 0x29e6 <GPIO_voidSetPinDir>
    2df4:	82 e0       	ldi	r24, 0x02	; 2
    2df6:	62 e0       	ldi	r22, 0x02	; 2
    2df8:	40 e0       	ldi	r20, 0x00	; 0
    2dfa:	0e 94 f3 14 	call	0x29e6	; 0x29e6 <GPIO_voidSetPinDir>
    2dfe:	82 e0       	ldi	r24, 0x02	; 2
    2e00:	28 c0       	rjmp	.+80     	; 0x2e52 <GPIO_voidSet_LOW_NibbleDir+0x134>
    2e02:	82 e0       	ldi	r24, 0x02	; 2
    2e04:	60 e0       	ldi	r22, 0x00	; 0
    2e06:	41 e0       	ldi	r20, 0x01	; 1
    2e08:	0e 94 f3 14 	call	0x29e6	; 0x29e6 <GPIO_voidSetPinDir>
    2e0c:	82 e0       	ldi	r24, 0x02	; 2
    2e0e:	61 e0       	ldi	r22, 0x01	; 1
    2e10:	41 e0       	ldi	r20, 0x01	; 1
    2e12:	0e 94 f3 14 	call	0x29e6	; 0x29e6 <GPIO_voidSetPinDir>
    2e16:	82 e0       	ldi	r24, 0x02	; 2
    2e18:	62 e0       	ldi	r22, 0x02	; 2
    2e1a:	41 e0       	ldi	r20, 0x01	; 1
    2e1c:	0e 94 f3 14 	call	0x29e6	; 0x29e6 <GPIO_voidSetPinDir>
    2e20:	82 e0       	ldi	r24, 0x02	; 2
    2e22:	63 e0       	ldi	r22, 0x03	; 3
    2e24:	41 e0       	ldi	r20, 0x01	; 1
    2e26:	17 c0       	rjmp	.+46     	; 0x2e56 <GPIO_voidSet_LOW_NibbleDir+0x138>
    2e28:	66 23       	and	r22, r22
    2e2a:	19 f0       	breq	.+6      	; 0x2e32 <GPIO_voidSet_LOW_NibbleDir+0x114>
    2e2c:	61 30       	cpi	r22, 0x01	; 1
    2e2e:	51 f5       	brne	.+84     	; 0x2e84 <GPIO_voidSet_LOW_NibbleDir+0x166>
    2e30:	15 c0       	rjmp	.+42     	; 0x2e5c <GPIO_voidSet_LOW_NibbleDir+0x13e>
    2e32:	83 e0       	ldi	r24, 0x03	; 3
    2e34:	60 e0       	ldi	r22, 0x00	; 0
    2e36:	40 e0       	ldi	r20, 0x00	; 0
    2e38:	0e 94 f3 14 	call	0x29e6	; 0x29e6 <GPIO_voidSetPinDir>
    2e3c:	83 e0       	ldi	r24, 0x03	; 3
    2e3e:	61 e0       	ldi	r22, 0x01	; 1
    2e40:	40 e0       	ldi	r20, 0x00	; 0
    2e42:	0e 94 f3 14 	call	0x29e6	; 0x29e6 <GPIO_voidSetPinDir>
    2e46:	83 e0       	ldi	r24, 0x03	; 3
    2e48:	62 e0       	ldi	r22, 0x02	; 2
    2e4a:	40 e0       	ldi	r20, 0x00	; 0
    2e4c:	0e 94 f3 14 	call	0x29e6	; 0x29e6 <GPIO_voidSetPinDir>
    2e50:	83 e0       	ldi	r24, 0x03	; 3
    2e52:	63 e0       	ldi	r22, 0x03	; 3
    2e54:	40 e0       	ldi	r20, 0x00	; 0
    2e56:	0e 94 f3 14 	call	0x29e6	; 0x29e6 <GPIO_voidSetPinDir>
    2e5a:	08 95       	ret
    2e5c:	83 e0       	ldi	r24, 0x03	; 3
    2e5e:	60 e0       	ldi	r22, 0x00	; 0
    2e60:	41 e0       	ldi	r20, 0x01	; 1
    2e62:	0e 94 f3 14 	call	0x29e6	; 0x29e6 <GPIO_voidSetPinDir>
    2e66:	83 e0       	ldi	r24, 0x03	; 3
    2e68:	61 e0       	ldi	r22, 0x01	; 1
    2e6a:	41 e0       	ldi	r20, 0x01	; 1
    2e6c:	0e 94 f3 14 	call	0x29e6	; 0x29e6 <GPIO_voidSetPinDir>
    2e70:	83 e0       	ldi	r24, 0x03	; 3
    2e72:	62 e0       	ldi	r22, 0x02	; 2
    2e74:	41 e0       	ldi	r20, 0x01	; 1
    2e76:	0e 94 f3 14 	call	0x29e6	; 0x29e6 <GPIO_voidSetPinDir>
    2e7a:	83 e0       	ldi	r24, 0x03	; 3
    2e7c:	63 e0       	ldi	r22, 0x03	; 3
    2e7e:	41 e0       	ldi	r20, 0x01	; 1
    2e80:	0e 94 f3 14 	call	0x29e6	; 0x29e6 <GPIO_voidSetPinDir>
    2e84:	08 95       	ret

00002e86 <GPIO_voidSet_HIGH_NibbleDir>:
    2e86:	81 30       	cpi	r24, 0x01	; 1
    2e88:	89 f1       	breq	.+98     	; 0x2eec <GPIO_voidSet_HIGH_NibbleDir+0x66>
    2e8a:	81 30       	cpi	r24, 0x01	; 1
    2e8c:	38 f0       	brcs	.+14     	; 0x2e9c <GPIO_voidSet_HIGH_NibbleDir+0x16>
    2e8e:	82 30       	cpi	r24, 0x02	; 2
    2e90:	09 f4       	brne	.+2      	; 0x2e94 <GPIO_voidSet_HIGH_NibbleDir+0xe>
    2e92:	54 c0       	rjmp	.+168    	; 0x2f3c <GPIO_voidSet_HIGH_NibbleDir+0xb6>
    2e94:	83 30       	cpi	r24, 0x03	; 3
    2e96:	09 f0       	breq	.+2      	; 0x2e9a <GPIO_voidSet_HIGH_NibbleDir+0x14>
    2e98:	a9 c0       	rjmp	.+338    	; 0x2fec <GPIO_voidSet_HIGH_NibbleDir+0x166>
    2e9a:	7a c0       	rjmp	.+244    	; 0x2f90 <GPIO_voidSet_HIGH_NibbleDir+0x10a>
    2e9c:	66 23       	and	r22, r22
    2e9e:	21 f0       	breq	.+8      	; 0x2ea8 <GPIO_voidSet_HIGH_NibbleDir+0x22>
    2ea0:	61 30       	cpi	r22, 0x01	; 1
    2ea2:	09 f0       	breq	.+2      	; 0x2ea6 <GPIO_voidSet_HIGH_NibbleDir+0x20>
    2ea4:	a3 c0       	rjmp	.+326    	; 0x2fec <GPIO_voidSet_HIGH_NibbleDir+0x166>
    2ea6:	11 c0       	rjmp	.+34     	; 0x2eca <GPIO_voidSet_HIGH_NibbleDir+0x44>
    2ea8:	80 e0       	ldi	r24, 0x00	; 0
    2eaa:	64 e0       	ldi	r22, 0x04	; 4
    2eac:	40 e0       	ldi	r20, 0x00	; 0
    2eae:	0e 94 f3 14 	call	0x29e6	; 0x29e6 <GPIO_voidSetPinDir>
    2eb2:	80 e0       	ldi	r24, 0x00	; 0
    2eb4:	65 e0       	ldi	r22, 0x05	; 5
    2eb6:	40 e0       	ldi	r20, 0x00	; 0
    2eb8:	0e 94 f3 14 	call	0x29e6	; 0x29e6 <GPIO_voidSetPinDir>
    2ebc:	80 e0       	ldi	r24, 0x00	; 0
    2ebe:	66 e0       	ldi	r22, 0x06	; 6
    2ec0:	40 e0       	ldi	r20, 0x00	; 0
    2ec2:	0e 94 f3 14 	call	0x29e6	; 0x29e6 <GPIO_voidSetPinDir>
    2ec6:	80 e0       	ldi	r24, 0x00	; 0
    2ec8:	78 c0       	rjmp	.+240    	; 0x2fba <GPIO_voidSet_HIGH_NibbleDir+0x134>
    2eca:	80 e0       	ldi	r24, 0x00	; 0
    2ecc:	64 e0       	ldi	r22, 0x04	; 4
    2ece:	41 e0       	ldi	r20, 0x01	; 1
    2ed0:	0e 94 f3 14 	call	0x29e6	; 0x29e6 <GPIO_voidSetPinDir>
    2ed4:	80 e0       	ldi	r24, 0x00	; 0
    2ed6:	65 e0       	ldi	r22, 0x05	; 5
    2ed8:	41 e0       	ldi	r20, 0x01	; 1
    2eda:	0e 94 f3 14 	call	0x29e6	; 0x29e6 <GPIO_voidSetPinDir>
    2ede:	80 e0       	ldi	r24, 0x00	; 0
    2ee0:	66 e0       	ldi	r22, 0x06	; 6
    2ee2:	41 e0       	ldi	r20, 0x01	; 1
    2ee4:	0e 94 f3 14 	call	0x29e6	; 0x29e6 <GPIO_voidSetPinDir>
    2ee8:	80 e0       	ldi	r24, 0x00	; 0
    2eea:	4f c0       	rjmp	.+158    	; 0x2f8a <GPIO_voidSet_HIGH_NibbleDir+0x104>
    2eec:	66 23       	and	r22, r22
    2eee:	21 f0       	breq	.+8      	; 0x2ef8 <GPIO_voidSet_HIGH_NibbleDir+0x72>
    2ef0:	61 30       	cpi	r22, 0x01	; 1
    2ef2:	09 f0       	breq	.+2      	; 0x2ef6 <GPIO_voidSet_HIGH_NibbleDir+0x70>
    2ef4:	7b c0       	rjmp	.+246    	; 0x2fec <GPIO_voidSet_HIGH_NibbleDir+0x166>
    2ef6:	11 c0       	rjmp	.+34     	; 0x2f1a <GPIO_voidSet_HIGH_NibbleDir+0x94>
    2ef8:	81 e0       	ldi	r24, 0x01	; 1
    2efa:	64 e0       	ldi	r22, 0x04	; 4
    2efc:	40 e0       	ldi	r20, 0x00	; 0
    2efe:	0e 94 f3 14 	call	0x29e6	; 0x29e6 <GPIO_voidSetPinDir>
    2f02:	81 e0       	ldi	r24, 0x01	; 1
    2f04:	65 e0       	ldi	r22, 0x05	; 5
    2f06:	40 e0       	ldi	r20, 0x00	; 0
    2f08:	0e 94 f3 14 	call	0x29e6	; 0x29e6 <GPIO_voidSetPinDir>
    2f0c:	81 e0       	ldi	r24, 0x01	; 1
    2f0e:	66 e0       	ldi	r22, 0x06	; 6
    2f10:	40 e0       	ldi	r20, 0x00	; 0
    2f12:	0e 94 f3 14 	call	0x29e6	; 0x29e6 <GPIO_voidSetPinDir>
    2f16:	81 e0       	ldi	r24, 0x01	; 1
    2f18:	50 c0       	rjmp	.+160    	; 0x2fba <GPIO_voidSet_HIGH_NibbleDir+0x134>
    2f1a:	81 e0       	ldi	r24, 0x01	; 1
    2f1c:	64 e0       	ldi	r22, 0x04	; 4
    2f1e:	41 e0       	ldi	r20, 0x01	; 1
    2f20:	0e 94 f3 14 	call	0x29e6	; 0x29e6 <GPIO_voidSetPinDir>
    2f24:	81 e0       	ldi	r24, 0x01	; 1
    2f26:	65 e0       	ldi	r22, 0x05	; 5
    2f28:	41 e0       	ldi	r20, 0x01	; 1
    2f2a:	0e 94 f3 14 	call	0x29e6	; 0x29e6 <GPIO_voidSetPinDir>
    2f2e:	81 e0       	ldi	r24, 0x01	; 1
    2f30:	66 e0       	ldi	r22, 0x06	; 6
    2f32:	41 e0       	ldi	r20, 0x01	; 1
    2f34:	0e 94 f3 14 	call	0x29e6	; 0x29e6 <GPIO_voidSetPinDir>
    2f38:	81 e0       	ldi	r24, 0x01	; 1
    2f3a:	27 c0       	rjmp	.+78     	; 0x2f8a <GPIO_voidSet_HIGH_NibbleDir+0x104>
    2f3c:	66 23       	and	r22, r22
    2f3e:	21 f0       	breq	.+8      	; 0x2f48 <GPIO_voidSet_HIGH_NibbleDir+0xc2>
    2f40:	61 30       	cpi	r22, 0x01	; 1
    2f42:	09 f0       	breq	.+2      	; 0x2f46 <GPIO_voidSet_HIGH_NibbleDir+0xc0>
    2f44:	53 c0       	rjmp	.+166    	; 0x2fec <GPIO_voidSet_HIGH_NibbleDir+0x166>
    2f46:	11 c0       	rjmp	.+34     	; 0x2f6a <GPIO_voidSet_HIGH_NibbleDir+0xe4>
    2f48:	82 e0       	ldi	r24, 0x02	; 2
    2f4a:	64 e0       	ldi	r22, 0x04	; 4
    2f4c:	40 e0       	ldi	r20, 0x00	; 0
    2f4e:	0e 94 f3 14 	call	0x29e6	; 0x29e6 <GPIO_voidSetPinDir>
    2f52:	82 e0       	ldi	r24, 0x02	; 2
    2f54:	65 e0       	ldi	r22, 0x05	; 5
    2f56:	40 e0       	ldi	r20, 0x00	; 0
    2f58:	0e 94 f3 14 	call	0x29e6	; 0x29e6 <GPIO_voidSetPinDir>
    2f5c:	82 e0       	ldi	r24, 0x02	; 2
    2f5e:	66 e0       	ldi	r22, 0x06	; 6
    2f60:	40 e0       	ldi	r20, 0x00	; 0
    2f62:	0e 94 f3 14 	call	0x29e6	; 0x29e6 <GPIO_voidSetPinDir>
    2f66:	82 e0       	ldi	r24, 0x02	; 2
    2f68:	28 c0       	rjmp	.+80     	; 0x2fba <GPIO_voidSet_HIGH_NibbleDir+0x134>
    2f6a:	82 e0       	ldi	r24, 0x02	; 2
    2f6c:	64 e0       	ldi	r22, 0x04	; 4
    2f6e:	41 e0       	ldi	r20, 0x01	; 1
    2f70:	0e 94 f3 14 	call	0x29e6	; 0x29e6 <GPIO_voidSetPinDir>
    2f74:	82 e0       	ldi	r24, 0x02	; 2
    2f76:	65 e0       	ldi	r22, 0x05	; 5
    2f78:	41 e0       	ldi	r20, 0x01	; 1
    2f7a:	0e 94 f3 14 	call	0x29e6	; 0x29e6 <GPIO_voidSetPinDir>
    2f7e:	82 e0       	ldi	r24, 0x02	; 2
    2f80:	66 e0       	ldi	r22, 0x06	; 6
    2f82:	41 e0       	ldi	r20, 0x01	; 1
    2f84:	0e 94 f3 14 	call	0x29e6	; 0x29e6 <GPIO_voidSetPinDir>
    2f88:	82 e0       	ldi	r24, 0x02	; 2
    2f8a:	67 e0       	ldi	r22, 0x07	; 7
    2f8c:	41 e0       	ldi	r20, 0x01	; 1
    2f8e:	17 c0       	rjmp	.+46     	; 0x2fbe <GPIO_voidSet_HIGH_NibbleDir+0x138>
    2f90:	66 23       	and	r22, r22
    2f92:	19 f0       	breq	.+6      	; 0x2f9a <GPIO_voidSet_HIGH_NibbleDir+0x114>
    2f94:	61 30       	cpi	r22, 0x01	; 1
    2f96:	51 f5       	brne	.+84     	; 0x2fec <GPIO_voidSet_HIGH_NibbleDir+0x166>
    2f98:	15 c0       	rjmp	.+42     	; 0x2fc4 <GPIO_voidSet_HIGH_NibbleDir+0x13e>
    2f9a:	83 e0       	ldi	r24, 0x03	; 3
    2f9c:	64 e0       	ldi	r22, 0x04	; 4
    2f9e:	40 e0       	ldi	r20, 0x00	; 0
    2fa0:	0e 94 f3 14 	call	0x29e6	; 0x29e6 <GPIO_voidSetPinDir>
    2fa4:	83 e0       	ldi	r24, 0x03	; 3
    2fa6:	65 e0       	ldi	r22, 0x05	; 5
    2fa8:	40 e0       	ldi	r20, 0x00	; 0
    2faa:	0e 94 f3 14 	call	0x29e6	; 0x29e6 <GPIO_voidSetPinDir>
    2fae:	83 e0       	ldi	r24, 0x03	; 3
    2fb0:	66 e0       	ldi	r22, 0x06	; 6
    2fb2:	40 e0       	ldi	r20, 0x00	; 0
    2fb4:	0e 94 f3 14 	call	0x29e6	; 0x29e6 <GPIO_voidSetPinDir>
    2fb8:	83 e0       	ldi	r24, 0x03	; 3
    2fba:	67 e0       	ldi	r22, 0x07	; 7
    2fbc:	40 e0       	ldi	r20, 0x00	; 0
    2fbe:	0e 94 f3 14 	call	0x29e6	; 0x29e6 <GPIO_voidSetPinDir>
    2fc2:	08 95       	ret
    2fc4:	83 e0       	ldi	r24, 0x03	; 3
    2fc6:	64 e0       	ldi	r22, 0x04	; 4
    2fc8:	41 e0       	ldi	r20, 0x01	; 1
    2fca:	0e 94 f3 14 	call	0x29e6	; 0x29e6 <GPIO_voidSetPinDir>
    2fce:	83 e0       	ldi	r24, 0x03	; 3
    2fd0:	65 e0       	ldi	r22, 0x05	; 5
    2fd2:	41 e0       	ldi	r20, 0x01	; 1
    2fd4:	0e 94 f3 14 	call	0x29e6	; 0x29e6 <GPIO_voidSetPinDir>
    2fd8:	83 e0       	ldi	r24, 0x03	; 3
    2fda:	66 e0       	ldi	r22, 0x06	; 6
    2fdc:	41 e0       	ldi	r20, 0x01	; 1
    2fde:	0e 94 f3 14 	call	0x29e6	; 0x29e6 <GPIO_voidSetPinDir>
    2fe2:	83 e0       	ldi	r24, 0x03	; 3
    2fe4:	67 e0       	ldi	r22, 0x07	; 7
    2fe6:	41 e0       	ldi	r20, 0x01	; 1
    2fe8:	0e 94 f3 14 	call	0x29e6	; 0x29e6 <GPIO_voidSetPinDir>
    2fec:	08 95       	ret

00002fee <GPIO_voidSet_LOW_NibbleVal>:
    2fee:	6f 70       	andi	r22, 0x0F	; 15
    2ff0:	81 30       	cpi	r24, 0x01	; 1
    2ff2:	71 f0       	breq	.+28     	; 0x3010 <GPIO_voidSet_LOW_NibbleVal+0x22>
    2ff4:	81 30       	cpi	r24, 0x01	; 1
    2ff6:	28 f0       	brcs	.+10     	; 0x3002 <GPIO_voidSet_LOW_NibbleVal+0x14>
    2ff8:	82 30       	cpi	r24, 0x02	; 2
    2ffa:	89 f0       	breq	.+34     	; 0x301e <GPIO_voidSet_LOW_NibbleVal+0x30>
    2ffc:	83 30       	cpi	r24, 0x03	; 3
    2ffe:	e1 f4       	brne	.+56     	; 0x3038 <GPIO_voidSet_LOW_NibbleVal+0x4a>
    3000:	15 c0       	rjmp	.+42     	; 0x302c <GPIO_voidSet_LOW_NibbleVal+0x3e>
    3002:	8b b3       	in	r24, 0x1b	; 27
    3004:	80 7f       	andi	r24, 0xF0	; 240
    3006:	8b bb       	out	0x1b, r24	; 27
    3008:	8b b3       	in	r24, 0x1b	; 27
    300a:	68 2b       	or	r22, r24
    300c:	6b bb       	out	0x1b, r22	; 27
    300e:	08 95       	ret
    3010:	88 b3       	in	r24, 0x18	; 24
    3012:	80 7f       	andi	r24, 0xF0	; 240
    3014:	88 bb       	out	0x18, r24	; 24
    3016:	88 b3       	in	r24, 0x18	; 24
    3018:	68 2b       	or	r22, r24
    301a:	68 bb       	out	0x18, r22	; 24
    301c:	08 95       	ret
    301e:	85 b3       	in	r24, 0x15	; 21
    3020:	80 7f       	andi	r24, 0xF0	; 240
    3022:	85 bb       	out	0x15, r24	; 21
    3024:	85 b3       	in	r24, 0x15	; 21
    3026:	68 2b       	or	r22, r24
    3028:	65 bb       	out	0x15, r22	; 21
    302a:	08 95       	ret
    302c:	82 b3       	in	r24, 0x12	; 18
    302e:	80 7f       	andi	r24, 0xF0	; 240
    3030:	82 bb       	out	0x12, r24	; 18
    3032:	82 b3       	in	r24, 0x12	; 18
    3034:	68 2b       	or	r22, r24
    3036:	62 bb       	out	0x12, r22	; 18
    3038:	08 95       	ret

0000303a <GPIO_voidSet_HIGH_NibbleVal>:
    303a:	62 95       	swap	r22
    303c:	60 7f       	andi	r22, 0xF0	; 240
    303e:	81 30       	cpi	r24, 0x01	; 1
    3040:	71 f0       	breq	.+28     	; 0x305e <GPIO_voidSet_HIGH_NibbleVal+0x24>
    3042:	81 30       	cpi	r24, 0x01	; 1
    3044:	28 f0       	brcs	.+10     	; 0x3050 <GPIO_voidSet_HIGH_NibbleVal+0x16>
    3046:	82 30       	cpi	r24, 0x02	; 2
    3048:	89 f0       	breq	.+34     	; 0x306c <GPIO_voidSet_HIGH_NibbleVal+0x32>
    304a:	83 30       	cpi	r24, 0x03	; 3
    304c:	e1 f4       	brne	.+56     	; 0x3086 <GPIO_voidSet_HIGH_NibbleVal+0x4c>
    304e:	15 c0       	rjmp	.+42     	; 0x307a <GPIO_voidSet_HIGH_NibbleVal+0x40>
    3050:	8b b3       	in	r24, 0x1b	; 27
    3052:	8f 70       	andi	r24, 0x0F	; 15
    3054:	8b bb       	out	0x1b, r24	; 27
    3056:	8b b3       	in	r24, 0x1b	; 27
    3058:	68 2b       	or	r22, r24
    305a:	6b bb       	out	0x1b, r22	; 27
    305c:	08 95       	ret
    305e:	88 b3       	in	r24, 0x18	; 24
    3060:	8f 70       	andi	r24, 0x0F	; 15
    3062:	88 bb       	out	0x18, r24	; 24
    3064:	88 b3       	in	r24, 0x18	; 24
    3066:	68 2b       	or	r22, r24
    3068:	68 bb       	out	0x18, r22	; 24
    306a:	08 95       	ret
    306c:	85 b3       	in	r24, 0x15	; 21
    306e:	8f 70       	andi	r24, 0x0F	; 15
    3070:	85 bb       	out	0x15, r24	; 21
    3072:	85 b3       	in	r24, 0x15	; 21
    3074:	68 2b       	or	r22, r24
    3076:	65 bb       	out	0x15, r22	; 21
    3078:	08 95       	ret
    307a:	82 b3       	in	r24, 0x12	; 18
    307c:	8f 70       	andi	r24, 0x0F	; 15
    307e:	82 bb       	out	0x12, r24	; 18
    3080:	82 b3       	in	r24, 0x12	; 18
    3082:	68 2b       	or	r22, r24
    3084:	62 bb       	out	0x12, r22	; 18
    3086:	08 95       	ret

00003088 <CLCD_voidSendEnableTrigger>:
    3088:	0f 93       	push	r16
    308a:	1f 93       	push	r17
    308c:	81 e0       	ldi	r24, 0x01	; 1
    308e:	62 e0       	ldi	r22, 0x02	; 2
    3090:	41 e0       	ldi	r20, 0x01	; 1
    3092:	0e 94 70 15 	call	0x2ae0	; 0x2ae0 <GPIO_voidSetPinVal>
    3096:	0a ef       	ldi	r16, 0xFA	; 250
    3098:	10 e0       	ldi	r17, 0x00	; 0
    309a:	c8 01       	movw	r24, r16
    309c:	01 97       	sbiw	r24, 0x01	; 1
    309e:	f1 f7       	brne	.-4      	; 0x309c <CLCD_voidSendEnableTrigger+0x14>
    30a0:	81 e0       	ldi	r24, 0x01	; 1
    30a2:	62 e0       	ldi	r22, 0x02	; 2
    30a4:	40 e0       	ldi	r20, 0x00	; 0
    30a6:	0e 94 70 15 	call	0x2ae0	; 0x2ae0 <GPIO_voidSetPinVal>
    30aa:	c8 01       	movw	r24, r16
    30ac:	01 97       	sbiw	r24, 0x01	; 1
    30ae:	f1 f7       	brne	.-4      	; 0x30ac <CLCD_voidSendEnableTrigger+0x24>
    30b0:	1f 91       	pop	r17
    30b2:	0f 91       	pop	r16
    30b4:	08 95       	ret

000030b6 <CLCD_voidSendCharacter>:
    30b6:	68 2f       	mov	r22, r24
    30b8:	80 e0       	ldi	r24, 0x00	; 0
    30ba:	0e 94 33 16 	call	0x2c66	; 0x2c66 <GPIO_voidSetPortVal>
    30be:	81 e0       	ldi	r24, 0x01	; 1
    30c0:	60 e0       	ldi	r22, 0x00	; 0
    30c2:	41 e0       	ldi	r20, 0x01	; 1
    30c4:	0e 94 70 15 	call	0x2ae0	; 0x2ae0 <GPIO_voidSetPinVal>
    30c8:	81 e0       	ldi	r24, 0x01	; 1
    30ca:	61 e0       	ldi	r22, 0x01	; 1
    30cc:	40 e0       	ldi	r20, 0x00	; 0
    30ce:	0e 94 70 15 	call	0x2ae0	; 0x2ae0 <GPIO_voidSetPinVal>
    30d2:	0e 94 44 18 	call	0x3088	; 0x3088 <CLCD_voidSendEnableTrigger>
    30d6:	08 95       	ret

000030d8 <CLCD_voidSendNumber>:
    30d8:	2f 92       	push	r2
    30da:	3f 92       	push	r3
    30dc:	4f 92       	push	r4
    30de:	5f 92       	push	r5
    30e0:	6f 92       	push	r6
    30e2:	7f 92       	push	r7
    30e4:	8f 92       	push	r8
    30e6:	9f 92       	push	r9
    30e8:	af 92       	push	r10
    30ea:	bf 92       	push	r11
    30ec:	cf 92       	push	r12
    30ee:	df 92       	push	r13
    30f0:	ef 92       	push	r14
    30f2:	ff 92       	push	r15
    30f4:	0f 93       	push	r16
    30f6:	1f 93       	push	r17
    30f8:	df 93       	push	r29
    30fa:	cf 93       	push	r28
    30fc:	cd b7       	in	r28, 0x3d	; 61
    30fe:	de b7       	in	r29, 0x3e	; 62
    3100:	29 97       	sbiw	r28, 0x09	; 9
    3102:	0f b6       	in	r0, 0x3f	; 63
    3104:	f8 94       	cli
    3106:	de bf       	out	0x3e, r29	; 62
    3108:	0f be       	out	0x3f, r0	; 63
    310a:	cd bf       	out	0x3d, r28	; 61
    310c:	2a 83       	std	Y+2, r18	; 0x02
    310e:	3b 83       	std	Y+3, r19	; 0x03
    3110:	4c 83       	std	Y+4, r20	; 0x04
    3112:	5d 83       	std	Y+5, r21	; 0x05
    3114:	6e 83       	std	Y+6, r22	; 0x06
    3116:	7f 83       	std	Y+7, r23	; 0x07
    3118:	88 87       	std	Y+8, r24	; 0x08
    311a:	99 87       	std	Y+9, r25	; 0x09
    311c:	82 2f       	mov	r24, r18
    311e:	83 2b       	or	r24, r19
    3120:	84 2b       	or	r24, r20
    3122:	85 2b       	or	r24, r21
    3124:	86 2b       	or	r24, r22
    3126:	87 2b       	or	r24, r23
    3128:	98 85       	ldd	r25, Y+8	; 0x08
    312a:	89 2b       	or	r24, r25
    312c:	e9 85       	ldd	r30, Y+9	; 0x09
    312e:	8e 2b       	or	r24, r30
    3130:	21 f4       	brne	.+8      	; 0x313a <CLCD_voidSendNumber+0x62>
    3132:	80 e3       	ldi	r24, 0x30	; 48
    3134:	0e 94 5b 18 	call	0x30b6	; 0x30b6 <CLCD_voidSendCharacter>
    3138:	33 c1       	rjmp	.+614    	; 0x33a0 <CLCD_voidSendNumber+0x2c8>
    313a:	22 24       	eor	r2, r2
    313c:	23 94       	inc	r2
    313e:	33 24       	eor	r3, r3
    3140:	44 24       	eor	r4, r4
    3142:	55 24       	eor	r5, r5
    3144:	66 24       	eor	r6, r6
    3146:	77 24       	eor	r7, r7
    3148:	88 24       	eor	r8, r8
    314a:	99 24       	eor	r9, r9
    314c:	91 01       	movw	r18, r2
    314e:	a2 01       	movw	r20, r4
    3150:	b3 01       	movw	r22, r6
    3152:	c4 01       	movw	r24, r8
    3154:	01 e0       	ldi	r16, 0x01	; 1
    3156:	0e 94 49 00 	call	0x92	; 0x92 <__ashldi3>
    315a:	12 2f       	mov	r17, r18
    315c:	f3 2e       	mov	r15, r19
    315e:	e4 2e       	mov	r14, r20
    3160:	d5 2e       	mov	r13, r21
    3162:	c6 2e       	mov	r12, r22
    3164:	b7 2e       	mov	r11, r23
    3166:	a8 2e       	mov	r10, r24
    3168:	89 2e       	mov	r8, r25
    316a:	02 e0       	ldi	r16, 0x02	; 2
    316c:	0e 94 49 00 	call	0x92	; 0x92 <__ashldi3>
    3170:	92 2e       	mov	r9, r18
    3172:	91 0e       	add	r9, r17
    3174:	21 e0       	ldi	r18, 0x01	; 1
    3176:	91 16       	cp	r9, r17
    3178:	08 f0       	brcs	.+2      	; 0x317c <CLCD_voidSendNumber+0xa4>
    317a:	20 e0       	ldi	r18, 0x00	; 0
    317c:	3f 0d       	add	r19, r15
    317e:	e1 e0       	ldi	r30, 0x01	; 1
    3180:	3f 15       	cp	r19, r15
    3182:	08 f0       	brcs	.+2      	; 0x3186 <CLCD_voidSendNumber+0xae>
    3184:	e0 e0       	ldi	r30, 0x00	; 0
    3186:	72 2e       	mov	r7, r18
    3188:	73 0e       	add	r7, r19
    318a:	21 e0       	ldi	r18, 0x01	; 1
    318c:	73 16       	cp	r7, r19
    318e:	08 f0       	brcs	.+2      	; 0x3192 <CLCD_voidSendNumber+0xba>
    3190:	20 e0       	ldi	r18, 0x00	; 0
    3192:	e2 2b       	or	r30, r18
    3194:	4e 0d       	add	r20, r14
    3196:	31 e0       	ldi	r19, 0x01	; 1
    3198:	4e 15       	cp	r20, r14
    319a:	08 f0       	brcs	.+2      	; 0x319e <CLCD_voidSendNumber+0xc6>
    319c:	30 e0       	ldi	r19, 0x00	; 0
    319e:	6e 2e       	mov	r6, r30
    31a0:	64 0e       	add	r6, r20
    31a2:	21 e0       	ldi	r18, 0x01	; 1
    31a4:	64 16       	cp	r6, r20
    31a6:	08 f0       	brcs	.+2      	; 0x31aa <CLCD_voidSendNumber+0xd2>
    31a8:	20 e0       	ldi	r18, 0x00	; 0
    31aa:	32 2b       	or	r19, r18
    31ac:	5d 0d       	add	r21, r13
    31ae:	41 e0       	ldi	r20, 0x01	; 1
    31b0:	5d 15       	cp	r21, r13
    31b2:	08 f0       	brcs	.+2      	; 0x31b6 <CLCD_voidSendNumber+0xde>
    31b4:	40 e0       	ldi	r20, 0x00	; 0
    31b6:	53 2e       	mov	r5, r19
    31b8:	55 0e       	add	r5, r21
    31ba:	21 e0       	ldi	r18, 0x01	; 1
    31bc:	55 16       	cp	r5, r21
    31be:	08 f0       	brcs	.+2      	; 0x31c2 <CLCD_voidSendNumber+0xea>
    31c0:	20 e0       	ldi	r18, 0x00	; 0
    31c2:	42 2b       	or	r20, r18
    31c4:	6c 0d       	add	r22, r12
    31c6:	31 e0       	ldi	r19, 0x01	; 1
    31c8:	6c 15       	cp	r22, r12
    31ca:	08 f0       	brcs	.+2      	; 0x31ce <CLCD_voidSendNumber+0xf6>
    31cc:	30 e0       	ldi	r19, 0x00	; 0
    31ce:	44 2e       	mov	r4, r20
    31d0:	46 0e       	add	r4, r22
    31d2:	21 e0       	ldi	r18, 0x01	; 1
    31d4:	46 16       	cp	r4, r22
    31d6:	08 f0       	brcs	.+2      	; 0x31da <CLCD_voidSendNumber+0x102>
    31d8:	20 e0       	ldi	r18, 0x00	; 0
    31da:	32 2b       	or	r19, r18
    31dc:	7b 0d       	add	r23, r11
    31de:	41 e0       	ldi	r20, 0x01	; 1
    31e0:	7b 15       	cp	r23, r11
    31e2:	08 f0       	brcs	.+2      	; 0x31e6 <CLCD_voidSendNumber+0x10e>
    31e4:	40 e0       	ldi	r20, 0x00	; 0
    31e6:	33 2e       	mov	r3, r19
    31e8:	37 0e       	add	r3, r23
    31ea:	21 e0       	ldi	r18, 0x01	; 1
    31ec:	37 16       	cp	r3, r23
    31ee:	08 f0       	brcs	.+2      	; 0x31f2 <CLCD_voidSendNumber+0x11a>
    31f0:	20 e0       	ldi	r18, 0x00	; 0
    31f2:	42 2b       	or	r20, r18
    31f4:	8a 0d       	add	r24, r10
    31f6:	31 e0       	ldi	r19, 0x01	; 1
    31f8:	8a 15       	cp	r24, r10
    31fa:	08 f0       	brcs	.+2      	; 0x31fe <CLCD_voidSendNumber+0x126>
    31fc:	30 e0       	ldi	r19, 0x00	; 0
    31fe:	24 2e       	mov	r2, r20
    3200:	28 0e       	add	r2, r24
    3202:	21 e0       	ldi	r18, 0x01	; 1
    3204:	28 16       	cp	r2, r24
    3206:	08 f0       	brcs	.+2      	; 0x320a <CLCD_voidSendNumber+0x132>
    3208:	20 e0       	ldi	r18, 0x00	; 0
    320a:	32 2b       	or	r19, r18
    320c:	98 0d       	add	r25, r8
    320e:	f3 2f       	mov	r31, r19
    3210:	f9 0f       	add	r31, r25
    3212:	f9 83       	std	Y+1, r31	; 0x01
    3214:	2a 81       	ldd	r18, Y+2	; 0x02
    3216:	3b 81       	ldd	r19, Y+3	; 0x03
    3218:	4c 81       	ldd	r20, Y+4	; 0x04
    321a:	5d 81       	ldd	r21, Y+5	; 0x05
    321c:	6e 81       	ldd	r22, Y+6	; 0x06
    321e:	7f 81       	ldd	r23, Y+7	; 0x07
    3220:	88 85       	ldd	r24, Y+8	; 0x08
    3222:	99 85       	ldd	r25, Y+9	; 0x09
    3224:	aa e0       	ldi	r26, 0x0A	; 10
    3226:	aa 2e       	mov	r10, r26
    3228:	bb 24       	eor	r11, r11
    322a:	cc 24       	eor	r12, r12
    322c:	dd 24       	eor	r13, r13
    322e:	ee 24       	eor	r14, r14
    3230:	ff 24       	eor	r15, r15
    3232:	00 e0       	ldi	r16, 0x00	; 0
    3234:	10 e0       	ldi	r17, 0x00	; 0
    3236:	0e 94 e5 07 	call	0xfca	; 0xfca <__umoddi3>
    323a:	12 2f       	mov	r17, r18
    323c:	19 0d       	add	r17, r9
    323e:	f1 e0       	ldi	r31, 0x01	; 1
    3240:	12 17       	cp	r17, r18
    3242:	08 f0       	brcs	.+2      	; 0x3246 <CLCD_voidSendNumber+0x16e>
    3244:	f0 e0       	ldi	r31, 0x00	; 0
    3246:	23 2f       	mov	r18, r19
    3248:	27 0d       	add	r18, r7
    324a:	e1 e0       	ldi	r30, 0x01	; 1
    324c:	23 17       	cp	r18, r19
    324e:	08 f0       	brcs	.+2      	; 0x3252 <CLCD_voidSendNumber+0x17a>
    3250:	e0 e0       	ldi	r30, 0x00	; 0
    3252:	bf 2f       	mov	r27, r31
    3254:	b2 0f       	add	r27, r18
    3256:	31 e0       	ldi	r19, 0x01	; 1
    3258:	b2 17       	cp	r27, r18
    325a:	08 f0       	brcs	.+2      	; 0x325e <CLCD_voidSendNumber+0x186>
    325c:	30 e0       	ldi	r19, 0x00	; 0
    325e:	e3 2b       	or	r30, r19
    3260:	24 2f       	mov	r18, r20
    3262:	26 0d       	add	r18, r6
    3264:	f1 e0       	ldi	r31, 0x01	; 1
    3266:	24 17       	cp	r18, r20
    3268:	08 f0       	brcs	.+2      	; 0x326c <CLCD_voidSendNumber+0x194>
    326a:	f0 e0       	ldi	r31, 0x00	; 0
    326c:	ae 2f       	mov	r26, r30
    326e:	a2 0f       	add	r26, r18
    3270:	31 e0       	ldi	r19, 0x01	; 1
    3272:	a2 17       	cp	r26, r18
    3274:	08 f0       	brcs	.+2      	; 0x3278 <CLCD_voidSendNumber+0x1a0>
    3276:	30 e0       	ldi	r19, 0x00	; 0
    3278:	f3 2b       	or	r31, r19
    327a:	25 2f       	mov	r18, r21
    327c:	25 0d       	add	r18, r5
    327e:	41 e0       	ldi	r20, 0x01	; 1
    3280:	25 17       	cp	r18, r21
    3282:	08 f0       	brcs	.+2      	; 0x3286 <CLCD_voidSendNumber+0x1ae>
    3284:	40 e0       	ldi	r20, 0x00	; 0
    3286:	0f 2f       	mov	r16, r31
    3288:	02 0f       	add	r16, r18
    328a:	31 e0       	ldi	r19, 0x01	; 1
    328c:	02 17       	cp	r16, r18
    328e:	08 f0       	brcs	.+2      	; 0x3292 <CLCD_voidSendNumber+0x1ba>
    3290:	30 e0       	ldi	r19, 0x00	; 0
    3292:	43 2b       	or	r20, r19
    3294:	26 2f       	mov	r18, r22
    3296:	24 0d       	add	r18, r4
    3298:	51 e0       	ldi	r21, 0x01	; 1
    329a:	26 17       	cp	r18, r22
    329c:	08 f0       	brcs	.+2      	; 0x32a0 <CLCD_voidSendNumber+0x1c8>
    329e:	50 e0       	ldi	r21, 0x00	; 0
    32a0:	64 2f       	mov	r22, r20
    32a2:	62 0f       	add	r22, r18
    32a4:	31 e0       	ldi	r19, 0x01	; 1
    32a6:	62 17       	cp	r22, r18
    32a8:	08 f0       	brcs	.+2      	; 0x32ac <CLCD_voidSendNumber+0x1d4>
    32aa:	30 e0       	ldi	r19, 0x00	; 0
    32ac:	53 2b       	or	r21, r19
    32ae:	27 2f       	mov	r18, r23
    32b0:	23 0d       	add	r18, r3
    32b2:	41 e0       	ldi	r20, 0x01	; 1
    32b4:	27 17       	cp	r18, r23
    32b6:	08 f0       	brcs	.+2      	; 0x32ba <CLCD_voidSendNumber+0x1e2>
    32b8:	40 e0       	ldi	r20, 0x00	; 0
    32ba:	52 0f       	add	r21, r18
    32bc:	31 e0       	ldi	r19, 0x01	; 1
    32be:	52 17       	cp	r21, r18
    32c0:	08 f0       	brcs	.+2      	; 0x32c4 <CLCD_voidSendNumber+0x1ec>
    32c2:	30 e0       	ldi	r19, 0x00	; 0
    32c4:	43 2b       	or	r20, r19
    32c6:	28 2f       	mov	r18, r24
    32c8:	22 0d       	add	r18, r2
    32ca:	31 e0       	ldi	r19, 0x01	; 1
    32cc:	28 17       	cp	r18, r24
    32ce:	08 f0       	brcs	.+2      	; 0x32d2 <CLCD_voidSendNumber+0x1fa>
    32d0:	30 e0       	ldi	r19, 0x00	; 0
    32d2:	42 0f       	add	r20, r18
    32d4:	81 e0       	ldi	r24, 0x01	; 1
    32d6:	42 17       	cp	r20, r18
    32d8:	08 f0       	brcs	.+2      	; 0x32dc <CLCD_voidSendNumber+0x204>
    32da:	80 e0       	ldi	r24, 0x00	; 0
    32dc:	38 2b       	or	r19, r24
    32de:	89 81       	ldd	r24, Y+1	; 0x01
    32e0:	89 0f       	add	r24, r25
    32e2:	21 2e       	mov	r2, r17
    32e4:	3b 2e       	mov	r3, r27
    32e6:	4a 2e       	mov	r4, r26
    32e8:	50 2e       	mov	r5, r16
    32ea:	66 2e       	mov	r6, r22
    32ec:	75 2e       	mov	r7, r21
    32ee:	84 2e       	mov	r8, r20
    32f0:	98 2e       	mov	r9, r24
    32f2:	93 0e       	add	r9, r19
    32f4:	2a 81       	ldd	r18, Y+2	; 0x02
    32f6:	3b 81       	ldd	r19, Y+3	; 0x03
    32f8:	4c 81       	ldd	r20, Y+4	; 0x04
    32fa:	5d 81       	ldd	r21, Y+5	; 0x05
    32fc:	6e 81       	ldd	r22, Y+6	; 0x06
    32fe:	7f 81       	ldd	r23, Y+7	; 0x07
    3300:	88 85       	ldd	r24, Y+8	; 0x08
    3302:	99 85       	ldd	r25, Y+9	; 0x09
    3304:	fa e0       	ldi	r31, 0x0A	; 10
    3306:	af 2e       	mov	r10, r31
    3308:	bb 24       	eor	r11, r11
    330a:	cc 24       	eor	r12, r12
    330c:	dd 24       	eor	r13, r13
    330e:	ee 24       	eor	r14, r14
    3310:	ff 24       	eor	r15, r15
    3312:	00 e0       	ldi	r16, 0x00	; 0
    3314:	10 e0       	ldi	r17, 0x00	; 0
    3316:	0e 94 70 01 	call	0x2e0	; 0x2e0 <__udivdi3>
    331a:	2a 83       	std	Y+2, r18	; 0x02
    331c:	3b 83       	std	Y+3, r19	; 0x03
    331e:	4c 83       	std	Y+4, r20	; 0x04
    3320:	5d 83       	std	Y+5, r21	; 0x05
    3322:	6e 83       	std	Y+6, r22	; 0x06
    3324:	7f 83       	std	Y+7, r23	; 0x07
    3326:	88 87       	std	Y+8, r24	; 0x08
    3328:	99 87       	std	Y+9, r25	; 0x09
    332a:	82 2f       	mov	r24, r18
    332c:	83 2b       	or	r24, r19
    332e:	84 2b       	or	r24, r20
    3330:	85 2b       	or	r24, r21
    3332:	86 2b       	or	r24, r22
    3334:	87 2b       	or	r24, r23
    3336:	98 85       	ldd	r25, Y+8	; 0x08
    3338:	89 2b       	or	r24, r25
    333a:	e9 85       	ldd	r30, Y+9	; 0x09
    333c:	8e 2b       	or	r24, r30
    333e:	09 f0       	breq	.+2      	; 0x3342 <CLCD_voidSendNumber+0x26a>
    3340:	05 cf       	rjmp	.-502    	; 0x314c <CLCD_voidSendNumber+0x74>
    3342:	1d c0       	rjmp	.+58     	; 0x337e <CLCD_voidSendNumber+0x2a6>
    3344:	91 01       	movw	r18, r2
    3346:	a2 01       	movw	r20, r4
    3348:	b3 01       	movw	r22, r6
    334a:	c4 01       	movw	r24, r8
    334c:	ea e0       	ldi	r30, 0x0A	; 10
    334e:	ae 2e       	mov	r10, r30
    3350:	bb 24       	eor	r11, r11
    3352:	cc 24       	eor	r12, r12
    3354:	dd 24       	eor	r13, r13
    3356:	ee 24       	eor	r14, r14
    3358:	ff 24       	eor	r15, r15
    335a:	00 e0       	ldi	r16, 0x00	; 0
    335c:	10 e0       	ldi	r17, 0x00	; 0
    335e:	0e 94 e5 07 	call	0xfca	; 0xfca <__umoddi3>
    3362:	82 2f       	mov	r24, r18
    3364:	80 5d       	subi	r24, 0xD0	; 208
    3366:	0e 94 5b 18 	call	0x30b6	; 0x30b6 <CLCD_voidSendCharacter>
    336a:	91 01       	movw	r18, r2
    336c:	a2 01       	movw	r20, r4
    336e:	b3 01       	movw	r22, r6
    3370:	c4 01       	movw	r24, r8
    3372:	0e 94 70 01 	call	0x2e0	; 0x2e0 <__udivdi3>
    3376:	19 01       	movw	r2, r18
    3378:	2a 01       	movw	r4, r20
    337a:	3b 01       	movw	r6, r22
    337c:	4c 01       	movw	r8, r24
    337e:	f1 e0       	ldi	r31, 0x01	; 1
    3380:	2f 16       	cp	r2, r31
    3382:	01 f7       	brne	.-64     	; 0x3344 <CLCD_voidSendNumber+0x26c>
    3384:	33 20       	and	r3, r3
    3386:	f1 f6       	brne	.-68     	; 0x3344 <CLCD_voidSendNumber+0x26c>
    3388:	44 20       	and	r4, r4
    338a:	e1 f6       	brne	.-72     	; 0x3344 <CLCD_voidSendNumber+0x26c>
    338c:	55 20       	and	r5, r5
    338e:	d1 f6       	brne	.-76     	; 0x3344 <CLCD_voidSendNumber+0x26c>
    3390:	66 20       	and	r6, r6
    3392:	c1 f6       	brne	.-80     	; 0x3344 <CLCD_voidSendNumber+0x26c>
    3394:	77 20       	and	r7, r7
    3396:	b1 f6       	brne	.-84     	; 0x3344 <CLCD_voidSendNumber+0x26c>
    3398:	88 20       	and	r8, r8
    339a:	a1 f6       	brne	.-88     	; 0x3344 <CLCD_voidSendNumber+0x26c>
    339c:	99 20       	and	r9, r9
    339e:	91 f6       	brne	.-92     	; 0x3344 <CLCD_voidSendNumber+0x26c>
    33a0:	29 96       	adiw	r28, 0x09	; 9
    33a2:	0f b6       	in	r0, 0x3f	; 63
    33a4:	f8 94       	cli
    33a6:	de bf       	out	0x3e, r29	; 62
    33a8:	0f be       	out	0x3f, r0	; 63
    33aa:	cd bf       	out	0x3d, r28	; 61
    33ac:	cf 91       	pop	r28
    33ae:	df 91       	pop	r29
    33b0:	1f 91       	pop	r17
    33b2:	0f 91       	pop	r16
    33b4:	ff 90       	pop	r15
    33b6:	ef 90       	pop	r14
    33b8:	df 90       	pop	r13
    33ba:	cf 90       	pop	r12
    33bc:	bf 90       	pop	r11
    33be:	af 90       	pop	r10
    33c0:	9f 90       	pop	r9
    33c2:	8f 90       	pop	r8
    33c4:	7f 90       	pop	r7
    33c6:	6f 90       	pop	r6
    33c8:	5f 90       	pop	r5
    33ca:	4f 90       	pop	r4
    33cc:	3f 90       	pop	r3
    33ce:	2f 90       	pop	r2
    33d0:	08 95       	ret

000033d2 <CLCD_voidSendFloatNumber>:
    33d2:	2f 92       	push	r2
    33d4:	3f 92       	push	r3
    33d6:	4f 92       	push	r4
    33d8:	5f 92       	push	r5
    33da:	6f 92       	push	r6
    33dc:	7f 92       	push	r7
    33de:	8f 92       	push	r8
    33e0:	9f 92       	push	r9
    33e2:	af 92       	push	r10
    33e4:	bf 92       	push	r11
    33e6:	cf 92       	push	r12
    33e8:	df 92       	push	r13
    33ea:	ef 92       	push	r14
    33ec:	ff 92       	push	r15
    33ee:	0f 93       	push	r16
    33f0:	1f 93       	push	r17
    33f2:	7b 01       	movw	r14, r22
    33f4:	8c 01       	movw	r16, r24
    33f6:	0e 94 c8 00 	call	0x190	; 0x190 <__fixunssfdi>
    33fa:	0e 94 6c 18 	call	0x30d8	; 0x30d8 <CLCD_voidSendNumber>
    33fe:	8e e2       	ldi	r24, 0x2E	; 46
    3400:	0e 94 5b 18 	call	0x30b6	; 0x30b6 <CLCD_voidSendCharacter>
    3404:	c8 01       	movw	r24, r16
    3406:	b7 01       	movw	r22, r14
    3408:	20 e0       	ldi	r18, 0x00	; 0
    340a:	34 e2       	ldi	r19, 0x24	; 36
    340c:	44 e7       	ldi	r20, 0x74	; 116
    340e:	59 e4       	ldi	r21, 0x49	; 73
    3410:	0e 94 55 0e 	call	0x1caa	; 0x1caa <__mulsf3>
    3414:	0e 94 c8 00 	call	0x190	; 0x190 <__fixunssfdi>
    3418:	92 2e       	mov	r9, r18
    341a:	83 2e       	mov	r8, r19
    341c:	74 2e       	mov	r7, r20
    341e:	65 2e       	mov	r6, r21
    3420:	56 2e       	mov	r5, r22
    3422:	47 2e       	mov	r4, r23
    3424:	38 2e       	mov	r3, r24
    3426:	29 2e       	mov	r2, r25
    3428:	0a e0       	ldi	r16, 0x0A	; 10
    342a:	a0 2e       	mov	r10, r16
    342c:	bb 24       	eor	r11, r11
    342e:	cc 24       	eor	r12, r12
    3430:	dd 24       	eor	r13, r13
    3432:	ee 24       	eor	r14, r14
    3434:	ff 24       	eor	r15, r15
    3436:	00 e0       	ldi	r16, 0x00	; 0
    3438:	10 e0       	ldi	r17, 0x00	; 0
    343a:	0e 94 e5 07 	call	0xfca	; 0xfca <__umoddi3>
    343e:	99 23       	and	r25, r25
    3440:	79 f4       	brne	.+30     	; 0x3460 <CLCD_voidSendFloatNumber+0x8e>
    3442:	88 23       	and	r24, r24
    3444:	69 f4       	brne	.+26     	; 0x3460 <CLCD_voidSendFloatNumber+0x8e>
    3446:	77 23       	and	r23, r23
    3448:	59 f4       	brne	.+22     	; 0x3460 <CLCD_voidSendFloatNumber+0x8e>
    344a:	66 23       	and	r22, r22
    344c:	49 f4       	brne	.+18     	; 0x3460 <CLCD_voidSendFloatNumber+0x8e>
    344e:	55 23       	and	r21, r21
    3450:	39 f4       	brne	.+14     	; 0x3460 <CLCD_voidSendFloatNumber+0x8e>
    3452:	44 23       	and	r20, r20
    3454:	29 f4       	brne	.+10     	; 0x3460 <CLCD_voidSendFloatNumber+0x8e>
    3456:	33 23       	and	r19, r19
    3458:	19 f4       	brne	.+6      	; 0x3460 <CLCD_voidSendFloatNumber+0x8e>
    345a:	25 30       	cpi	r18, 0x05	; 5
    345c:	08 f4       	brcc	.+2      	; 0x3460 <CLCD_voidSendFloatNumber+0x8e>
    345e:	4c c0       	rjmp	.+152    	; 0x34f8 <CLCD_voidSendFloatNumber+0x126>
    3460:	29 2d       	mov	r18, r9
    3462:	38 2d       	mov	r19, r8
    3464:	47 2d       	mov	r20, r7
    3466:	56 2d       	mov	r21, r6
    3468:	65 2d       	mov	r22, r5
    346a:	74 2d       	mov	r23, r4
    346c:	83 2d       	mov	r24, r3
    346e:	92 2d       	mov	r25, r2
    3470:	1a e0       	ldi	r17, 0x0A	; 10
    3472:	a1 2e       	mov	r10, r17
    3474:	bb 24       	eor	r11, r11
    3476:	cc 24       	eor	r12, r12
    3478:	dd 24       	eor	r13, r13
    347a:	ee 24       	eor	r14, r14
    347c:	ff 24       	eor	r15, r15
    347e:	00 e0       	ldi	r16, 0x00	; 0
    3480:	10 e0       	ldi	r17, 0x00	; 0
    3482:	0e 94 70 01 	call	0x2e0	; 0x2e0 <__udivdi3>
    3486:	e3 2f       	mov	r30, r19
    3488:	f4 2f       	mov	r31, r20
    348a:	a5 2f       	mov	r26, r21
    348c:	b6 2f       	mov	r27, r22
    348e:	17 2f       	mov	r17, r23
    3490:	08 2f       	mov	r16, r24
    3492:	e9 2e       	mov	r14, r25
    3494:	f2 2e       	mov	r15, r18
    3496:	f3 94       	inc	r15
    3498:	31 e0       	ldi	r19, 0x01	; 1
    349a:	f2 16       	cp	r15, r18
    349c:	08 f0       	brcs	.+2      	; 0x34a0 <CLCD_voidSendFloatNumber+0xce>
    349e:	30 e0       	ldi	r19, 0x00	; 0
    34a0:	3e 0f       	add	r19, r30
    34a2:	41 e0       	ldi	r20, 0x01	; 1
    34a4:	3e 17       	cp	r19, r30
    34a6:	08 f0       	brcs	.+2      	; 0x34aa <CLCD_voidSendFloatNumber+0xd8>
    34a8:	40 e0       	ldi	r20, 0x00	; 0
    34aa:	4f 0f       	add	r20, r31
    34ac:	51 e0       	ldi	r21, 0x01	; 1
    34ae:	4f 17       	cp	r20, r31
    34b0:	08 f0       	brcs	.+2      	; 0x34b4 <CLCD_voidSendFloatNumber+0xe2>
    34b2:	50 e0       	ldi	r21, 0x00	; 0
    34b4:	5a 0f       	add	r21, r26
    34b6:	61 e0       	ldi	r22, 0x01	; 1
    34b8:	5a 17       	cp	r21, r26
    34ba:	08 f0       	brcs	.+2      	; 0x34be <CLCD_voidSendFloatNumber+0xec>
    34bc:	60 e0       	ldi	r22, 0x00	; 0
    34be:	6b 0f       	add	r22, r27
    34c0:	71 e0       	ldi	r23, 0x01	; 1
    34c2:	6b 17       	cp	r22, r27
    34c4:	08 f0       	brcs	.+2      	; 0x34c8 <CLCD_voidSendFloatNumber+0xf6>
    34c6:	70 e0       	ldi	r23, 0x00	; 0
    34c8:	71 0f       	add	r23, r17
    34ca:	81 e0       	ldi	r24, 0x01	; 1
    34cc:	71 17       	cp	r23, r17
    34ce:	08 f0       	brcs	.+2      	; 0x34d2 <CLCD_voidSendFloatNumber+0x100>
    34d0:	80 e0       	ldi	r24, 0x00	; 0
    34d2:	80 0f       	add	r24, r16
    34d4:	91 e0       	ldi	r25, 0x01	; 1
    34d6:	80 17       	cp	r24, r16
    34d8:	08 f0       	brcs	.+2      	; 0x34dc <CLCD_voidSendFloatNumber+0x10a>
    34da:	90 e0       	ldi	r25, 0x00	; 0
    34dc:	2f 2d       	mov	r18, r15
    34de:	9e 0d       	add	r25, r14
    34e0:	b0 ea       	ldi	r27, 0xA0	; 160
    34e2:	ab 2e       	mov	r10, r27
    34e4:	a6 e8       	ldi	r26, 0x86	; 134
    34e6:	ba 2e       	mov	r11, r26
    34e8:	cc 24       	eor	r12, r12
    34ea:	c3 94       	inc	r12
    34ec:	dd 24       	eor	r13, r13
    34ee:	ee 24       	eor	r14, r14
    34f0:	ff 24       	eor	r15, r15
    34f2:	00 e0       	ldi	r16, 0x00	; 0
    34f4:	10 e0       	ldi	r17, 0x00	; 0
    34f6:	19 c0       	rjmp	.+50     	; 0x352a <CLCD_voidSendFloatNumber+0x158>
    34f8:	29 2d       	mov	r18, r9
    34fa:	38 2d       	mov	r19, r8
    34fc:	47 2d       	mov	r20, r7
    34fe:	56 2d       	mov	r21, r6
    3500:	65 2d       	mov	r22, r5
    3502:	74 2d       	mov	r23, r4
    3504:	83 2d       	mov	r24, r3
    3506:	92 2d       	mov	r25, r2
    3508:	fa e0       	ldi	r31, 0x0A	; 10
    350a:	af 2e       	mov	r10, r31
    350c:	bb 24       	eor	r11, r11
    350e:	cc 24       	eor	r12, r12
    3510:	dd 24       	eor	r13, r13
    3512:	ee 24       	eor	r14, r14
    3514:	ff 24       	eor	r15, r15
    3516:	00 e0       	ldi	r16, 0x00	; 0
    3518:	10 e0       	ldi	r17, 0x00	; 0
    351a:	0e 94 70 01 	call	0x2e0	; 0x2e0 <__udivdi3>
    351e:	e0 ea       	ldi	r30, 0xA0	; 160
    3520:	ae 2e       	mov	r10, r30
    3522:	b6 e8       	ldi	r27, 0x86	; 134
    3524:	bb 2e       	mov	r11, r27
    3526:	cc 24       	eor	r12, r12
    3528:	c3 94       	inc	r12
    352a:	0e 94 e5 07 	call	0xfca	; 0xfca <__umoddi3>
    352e:	0e 94 6c 18 	call	0x30d8	; 0x30d8 <CLCD_voidSendNumber>
    3532:	1f 91       	pop	r17
    3534:	0f 91       	pop	r16
    3536:	ff 90       	pop	r15
    3538:	ef 90       	pop	r14
    353a:	df 90       	pop	r13
    353c:	cf 90       	pop	r12
    353e:	bf 90       	pop	r11
    3540:	af 90       	pop	r10
    3542:	9f 90       	pop	r9
    3544:	8f 90       	pop	r8
    3546:	7f 90       	pop	r7
    3548:	6f 90       	pop	r6
    354a:	5f 90       	pop	r5
    354c:	4f 90       	pop	r4
    354e:	3f 90       	pop	r3
    3550:	2f 90       	pop	r2
    3552:	08 95       	ret

00003554 <CLCD_voidSendString>:
    3554:	1f 93       	push	r17
    3556:	cf 93       	push	r28
    3558:	df 93       	push	r29
    355a:	ec 01       	movw	r28, r24
    355c:	10 e0       	ldi	r17, 0x00	; 0
    355e:	03 c0       	rjmp	.+6      	; 0x3566 <CLCD_voidSendString+0x12>
    3560:	1f 5f       	subi	r17, 0xFF	; 255
    3562:	0e 94 5b 18 	call	0x30b6	; 0x30b6 <CLCD_voidSendCharacter>
    3566:	fe 01       	movw	r30, r28
    3568:	e1 0f       	add	r30, r17
    356a:	f1 1d       	adc	r31, r1
    356c:	80 81       	ld	r24, Z
    356e:	88 23       	and	r24, r24
    3570:	b9 f7       	brne	.-18     	; 0x3560 <CLCD_voidSendString+0xc>
    3572:	df 91       	pop	r29
    3574:	cf 91       	pop	r28
    3576:	1f 91       	pop	r17
    3578:	08 95       	ret

0000357a <CLCD_voidSendCommand>:
    357a:	68 2f       	mov	r22, r24
    357c:	80 e0       	ldi	r24, 0x00	; 0
    357e:	0e 94 33 16 	call	0x2c66	; 0x2c66 <GPIO_voidSetPortVal>
    3582:	81 e0       	ldi	r24, 0x01	; 1
    3584:	60 e0       	ldi	r22, 0x00	; 0
    3586:	40 e0       	ldi	r20, 0x00	; 0
    3588:	0e 94 70 15 	call	0x2ae0	; 0x2ae0 <GPIO_voidSetPinVal>
    358c:	81 e0       	ldi	r24, 0x01	; 1
    358e:	61 e0       	ldi	r22, 0x01	; 1
    3590:	40 e0       	ldi	r20, 0x00	; 0
    3592:	0e 94 70 15 	call	0x2ae0	; 0x2ae0 <GPIO_voidSetPinVal>
    3596:	0e 94 44 18 	call	0x3088	; 0x3088 <CLCD_voidSendEnableTrigger>
    359a:	08 95       	ret

0000359c <CLCD_voidClearScreen>:
    359c:	81 e0       	ldi	r24, 0x01	; 1
    359e:	0e 94 bd 1a 	call	0x357a	; 0x357a <CLCD_voidSendCommand>
    35a2:	84 ef       	ldi	r24, 0xF4	; 244
    35a4:	91 e0       	ldi	r25, 0x01	; 1
    35a6:	01 97       	sbiw	r24, 0x01	; 1
    35a8:	f1 f7       	brne	.-4      	; 0x35a6 <CLCD_voidClearScreen+0xa>
    35aa:	08 95       	ret

000035ac <CLCD_voidGoToX_Y>:
    35ac:	81 30       	cpi	r24, 0x01	; 1
    35ae:	29 f4       	brne	.+10     	; 0x35ba <CLCD_voidGoToX_Y+0xe>
    35b0:	86 2f       	mov	r24, r22
    35b2:	81 58       	subi	r24, 0x81	; 129
    35b4:	0e 94 bd 1a 	call	0x357a	; 0x357a <CLCD_voidSendCommand>
    35b8:	08 95       	ret
    35ba:	82 30       	cpi	r24, 0x02	; 2
    35bc:	21 f4       	brne	.+8      	; 0x35c6 <CLCD_voidGoToX_Y+0x1a>
    35be:	86 2f       	mov	r24, r22
    35c0:	81 54       	subi	r24, 0x41	; 65
    35c2:	0e 94 bd 1a 	call	0x357a	; 0x357a <CLCD_voidSendCommand>
    35c6:	08 95       	ret

000035c8 <CLCD_voidDrwaExxtraChar>:
    35c8:	ef 92       	push	r14
    35ca:	ff 92       	push	r15
    35cc:	0f 93       	push	r16
    35ce:	1f 93       	push	r17
    35d0:	18 2f       	mov	r17, r24
    35d2:	06 2f       	mov	r16, r22
    35d4:	7a 01       	movw	r14, r20
    35d6:	80 e4       	ldi	r24, 0x40	; 64
    35d8:	0e 94 bd 1a 	call	0x357a	; 0x357a <CLCD_voidSendCommand>
    35dc:	f7 01       	movw	r30, r14
    35de:	80 81       	ld	r24, Z
    35e0:	0e 94 5b 18 	call	0x30b6	; 0x30b6 <CLCD_voidSendCharacter>
    35e4:	f7 01       	movw	r30, r14
    35e6:	81 81       	ldd	r24, Z+1	; 0x01
    35e8:	0e 94 5b 18 	call	0x30b6	; 0x30b6 <CLCD_voidSendCharacter>
    35ec:	81 2f       	mov	r24, r17
    35ee:	60 2f       	mov	r22, r16
    35f0:	0e 94 d6 1a 	call	0x35ac	; 0x35ac <CLCD_voidGoToX_Y>
    35f4:	f7 01       	movw	r30, r14
    35f6:	80 81       	ld	r24, Z
    35f8:	0e 94 5b 18 	call	0x30b6	; 0x30b6 <CLCD_voidSendCharacter>
    35fc:	f7 01       	movw	r30, r14
    35fe:	81 81       	ldd	r24, Z+1	; 0x01
    3600:	0e 94 5b 18 	call	0x30b6	; 0x30b6 <CLCD_voidSendCharacter>
    3604:	1f 91       	pop	r17
    3606:	0f 91       	pop	r16
    3608:	ff 90       	pop	r15
    360a:	ef 90       	pop	r14
    360c:	08 95       	ret

0000360e <CLCD_voidInit>:
    360e:	0f 93       	push	r16
    3610:	1f 93       	push	r17
    3612:	80 e0       	ldi	r24, 0x00	; 0
    3614:	6f ef       	ldi	r22, 0xFF	; 255
    3616:	0e 94 22 16 	call	0x2c44	; 0x2c44 <GPIO_voidSetPortDir>
    361a:	81 e0       	ldi	r24, 0x01	; 1
    361c:	61 e0       	ldi	r22, 0x01	; 1
    361e:	41 e0       	ldi	r20, 0x01	; 1
    3620:	0e 94 f3 14 	call	0x29e6	; 0x29e6 <GPIO_voidSetPinDir>
    3624:	81 e0       	ldi	r24, 0x01	; 1
    3626:	62 e0       	ldi	r22, 0x02	; 2
    3628:	41 e0       	ldi	r20, 0x01	; 1
    362a:	0e 94 f3 14 	call	0x29e6	; 0x29e6 <GPIO_voidSetPinDir>
    362e:	81 e0       	ldi	r24, 0x01	; 1
    3630:	60 e0       	ldi	r22, 0x00	; 0
    3632:	41 e0       	ldi	r20, 0x01	; 1
    3634:	0e 94 f3 14 	call	0x29e6	; 0x29e6 <GPIO_voidSetPinDir>
    3638:	84 ed       	ldi	r24, 0xD4	; 212
    363a:	90 e3       	ldi	r25, 0x30	; 48
    363c:	01 97       	sbiw	r24, 0x01	; 1
    363e:	f1 f7       	brne	.-4      	; 0x363c <CLCD_voidInit+0x2e>
    3640:	8c e3       	ldi	r24, 0x3C	; 60
    3642:	0e 94 bd 1a 	call	0x357a	; 0x357a <CLCD_voidSendCommand>
    3646:	0a ef       	ldi	r16, 0xFA	; 250
    3648:	10 e0       	ldi	r17, 0x00	; 0
    364a:	c8 01       	movw	r24, r16
    364c:	01 97       	sbiw	r24, 0x01	; 1
    364e:	f1 f7       	brne	.-4      	; 0x364c <CLCD_voidInit+0x3e>
    3650:	8f e0       	ldi	r24, 0x0F	; 15
    3652:	0e 94 bd 1a 	call	0x357a	; 0x357a <CLCD_voidSendCommand>
    3656:	c8 01       	movw	r24, r16
    3658:	01 97       	sbiw	r24, 0x01	; 1
    365a:	f1 f7       	brne	.-4      	; 0x3658 <CLCD_voidInit+0x4a>
    365c:	81 e0       	ldi	r24, 0x01	; 1
    365e:	0e 94 bd 1a 	call	0x357a	; 0x357a <CLCD_voidSendCommand>
    3662:	84 ef       	ldi	r24, 0xF4	; 244
    3664:	91 e0       	ldi	r25, 0x01	; 1
    3666:	01 97       	sbiw	r24, 0x01	; 1
    3668:	f1 f7       	brne	.-4      	; 0x3666 <CLCD_voidInit+0x58>
    366a:	86 e0       	ldi	r24, 0x06	; 6
    366c:	0e 94 bd 1a 	call	0x357a	; 0x357a <CLCD_voidSendCommand>
    3670:	1f 91       	pop	r17
    3672:	0f 91       	pop	r16
    3674:	08 95       	ret

00003676 <KEYPAD_voidGetPressedButton>:
    3676:	cf 92       	push	r12
    3678:	df 92       	push	r13
    367a:	ff 92       	push	r15
    367c:	0f 93       	push	r16
    367e:	1f 93       	push	r17
    3680:	cf 93       	push	r28
    3682:	df 93       	push	r29
    3684:	ff 24       	eor	r15, r15
    3686:	c0 e0       	ldi	r28, 0x00	; 0
    3688:	d0 e0       	ldi	r29, 0x00	; 0
    368a:	94 ed       	ldi	r25, 0xD4	; 212
    368c:	c9 2e       	mov	r12, r25
    368e:	90 e3       	ldi	r25, 0x30	; 48
    3690:	d9 2e       	mov	r13, r25
    3692:	ce 01       	movw	r24, r28
    3694:	8c 5f       	subi	r24, 0xFC	; 252
    3696:	08 2f       	mov	r16, r24
    3698:	83 e0       	ldi	r24, 0x03	; 3
    369a:	60 2f       	mov	r22, r16
    369c:	40 e0       	ldi	r20, 0x00	; 0
    369e:	0e 94 70 15 	call	0x2ae0	; 0x2ae0 <GPIO_voidSetPinVal>
    36a2:	83 e0       	ldi	r24, 0x03	; 3
    36a4:	60 e0       	ldi	r22, 0x00	; 0
    36a6:	0e 94 5d 16 	call	0x2cba	; 0x2cba <GPIO_u8ReadPin>
    36aa:	88 23       	and	r24, r24
    36ac:	11 f4       	brne	.+4      	; 0x36b2 <KEYPAD_voidGetPressedButton+0x3c>
    36ae:	10 e0       	ldi	r17, 0x00	; 0
    36b0:	17 c0       	rjmp	.+46     	; 0x36e0 <KEYPAD_voidGetPressedButton+0x6a>
    36b2:	83 e0       	ldi	r24, 0x03	; 3
    36b4:	61 e0       	ldi	r22, 0x01	; 1
    36b6:	0e 94 5d 16 	call	0x2cba	; 0x2cba <GPIO_u8ReadPin>
    36ba:	88 23       	and	r24, r24
    36bc:	11 f4       	brne	.+4      	; 0x36c2 <KEYPAD_voidGetPressedButton+0x4c>
    36be:	11 e0       	ldi	r17, 0x01	; 1
    36c0:	0f c0       	rjmp	.+30     	; 0x36e0 <KEYPAD_voidGetPressedButton+0x6a>
    36c2:	83 e0       	ldi	r24, 0x03	; 3
    36c4:	62 e0       	ldi	r22, 0x02	; 2
    36c6:	0e 94 5d 16 	call	0x2cba	; 0x2cba <GPIO_u8ReadPin>
    36ca:	88 23       	and	r24, r24
    36cc:	11 f4       	brne	.+4      	; 0x36d2 <KEYPAD_voidGetPressedButton+0x5c>
    36ce:	12 e0       	ldi	r17, 0x02	; 2
    36d0:	07 c0       	rjmp	.+14     	; 0x36e0 <KEYPAD_voidGetPressedButton+0x6a>
    36d2:	83 e0       	ldi	r24, 0x03	; 3
    36d4:	63 e0       	ldi	r22, 0x03	; 3
    36d6:	0e 94 5d 16 	call	0x2cba	; 0x2cba <GPIO_u8ReadPin>
    36da:	88 23       	and	r24, r24
    36dc:	d9 f4       	brne	.+54     	; 0x3714 <KEYPAD_voidGetPressedButton+0x9e>
    36de:	13 e0       	ldi	r17, 0x03	; 3
    36e0:	c6 01       	movw	r24, r12
    36e2:	01 97       	sbiw	r24, 0x01	; 1
    36e4:	f1 f7       	brne	.-4      	; 0x36e2 <KEYPAD_voidGetPressedButton+0x6c>
    36e6:	83 e0       	ldi	r24, 0x03	; 3
    36e8:	61 2f       	mov	r22, r17
    36ea:	0e 94 5d 16 	call	0x2cba	; 0x2cba <GPIO_u8ReadPin>
    36ee:	88 23       	and	r24, r24
    36f0:	59 f4       	brne	.+22     	; 0x3708 <KEYPAD_voidGetPressedButton+0x92>
    36f2:	e1 2f       	mov	r30, r17
    36f4:	f0 e0       	ldi	r31, 0x00	; 0
    36f6:	ee 0f       	add	r30, r30
    36f8:	ff 1f       	adc	r31, r31
    36fa:	ee 0f       	add	r30, r30
    36fc:	ff 1f       	adc	r31, r31
    36fe:	ec 0f       	add	r30, r28
    3700:	fd 1f       	adc	r31, r29
    3702:	e2 59       	subi	r30, 0x92	; 146
    3704:	fe 4f       	sbci	r31, 0xFE	; 254
    3706:	f0 80       	ld	r15, Z
    3708:	83 e0       	ldi	r24, 0x03	; 3
    370a:	61 2f       	mov	r22, r17
    370c:	0e 94 5d 16 	call	0x2cba	; 0x2cba <GPIO_u8ReadPin>
    3710:	88 23       	and	r24, r24
    3712:	d1 f3       	breq	.-12     	; 0x3708 <KEYPAD_voidGetPressedButton+0x92>
    3714:	83 e0       	ldi	r24, 0x03	; 3
    3716:	60 2f       	mov	r22, r16
    3718:	41 e0       	ldi	r20, 0x01	; 1
    371a:	0e 94 70 15 	call	0x2ae0	; 0x2ae0 <GPIO_voidSetPinVal>
    371e:	21 96       	adiw	r28, 0x01	; 1
    3720:	c4 30       	cpi	r28, 0x04	; 4
    3722:	d1 05       	cpc	r29, r1
    3724:	09 f0       	breq	.+2      	; 0x3728 <KEYPAD_voidGetPressedButton+0xb2>
    3726:	b5 cf       	rjmp	.-150    	; 0x3692 <KEYPAD_voidGetPressedButton+0x1c>
    3728:	8f 2d       	mov	r24, r15
    372a:	df 91       	pop	r29
    372c:	cf 91       	pop	r28
    372e:	1f 91       	pop	r17
    3730:	0f 91       	pop	r16
    3732:	ff 90       	pop	r15
    3734:	df 90       	pop	r13
    3736:	cf 90       	pop	r12
    3738:	08 95       	ret

0000373a <KEYPAD_voidInit>:
    373a:	83 e0       	ldi	r24, 0x03	; 3
    373c:	60 e0       	ldi	r22, 0x00	; 0
    373e:	40 e0       	ldi	r20, 0x00	; 0
    3740:	0e 94 f3 14 	call	0x29e6	; 0x29e6 <GPIO_voidSetPinDir>
    3744:	83 e0       	ldi	r24, 0x03	; 3
    3746:	61 e0       	ldi	r22, 0x01	; 1
    3748:	40 e0       	ldi	r20, 0x00	; 0
    374a:	0e 94 f3 14 	call	0x29e6	; 0x29e6 <GPIO_voidSetPinDir>
    374e:	83 e0       	ldi	r24, 0x03	; 3
    3750:	62 e0       	ldi	r22, 0x02	; 2
    3752:	40 e0       	ldi	r20, 0x00	; 0
    3754:	0e 94 f3 14 	call	0x29e6	; 0x29e6 <GPIO_voidSetPinDir>
    3758:	83 e0       	ldi	r24, 0x03	; 3
    375a:	63 e0       	ldi	r22, 0x03	; 3
    375c:	40 e0       	ldi	r20, 0x00	; 0
    375e:	0e 94 f3 14 	call	0x29e6	; 0x29e6 <GPIO_voidSetPinDir>
    3762:	83 e0       	ldi	r24, 0x03	; 3
    3764:	60 e0       	ldi	r22, 0x00	; 0
    3766:	41 e0       	ldi	r20, 0x01	; 1
    3768:	0e 94 70 15 	call	0x2ae0	; 0x2ae0 <GPIO_voidSetPinVal>
    376c:	83 e0       	ldi	r24, 0x03	; 3
    376e:	61 e0       	ldi	r22, 0x01	; 1
    3770:	41 e0       	ldi	r20, 0x01	; 1
    3772:	0e 94 70 15 	call	0x2ae0	; 0x2ae0 <GPIO_voidSetPinVal>
    3776:	83 e0       	ldi	r24, 0x03	; 3
    3778:	62 e0       	ldi	r22, 0x02	; 2
    377a:	41 e0       	ldi	r20, 0x01	; 1
    377c:	0e 94 70 15 	call	0x2ae0	; 0x2ae0 <GPIO_voidSetPinVal>
    3780:	83 e0       	ldi	r24, 0x03	; 3
    3782:	63 e0       	ldi	r22, 0x03	; 3
    3784:	41 e0       	ldi	r20, 0x01	; 1
    3786:	0e 94 70 15 	call	0x2ae0	; 0x2ae0 <GPIO_voidSetPinVal>
    378a:	83 e0       	ldi	r24, 0x03	; 3
    378c:	64 e0       	ldi	r22, 0x04	; 4
    378e:	41 e0       	ldi	r20, 0x01	; 1
    3790:	0e 94 f3 14 	call	0x29e6	; 0x29e6 <GPIO_voidSetPinDir>
    3794:	83 e0       	ldi	r24, 0x03	; 3
    3796:	65 e0       	ldi	r22, 0x05	; 5
    3798:	41 e0       	ldi	r20, 0x01	; 1
    379a:	0e 94 f3 14 	call	0x29e6	; 0x29e6 <GPIO_voidSetPinDir>
    379e:	83 e0       	ldi	r24, 0x03	; 3
    37a0:	66 e0       	ldi	r22, 0x06	; 6
    37a2:	41 e0       	ldi	r20, 0x01	; 1
    37a4:	0e 94 f3 14 	call	0x29e6	; 0x29e6 <GPIO_voidSetPinDir>
    37a8:	83 e0       	ldi	r24, 0x03	; 3
    37aa:	67 e0       	ldi	r22, 0x07	; 7
    37ac:	41 e0       	ldi	r20, 0x01	; 1
    37ae:	0e 94 f3 14 	call	0x29e6	; 0x29e6 <GPIO_voidSetPinDir>
    37b2:	83 e0       	ldi	r24, 0x03	; 3
    37b4:	64 e0       	ldi	r22, 0x04	; 4
    37b6:	41 e0       	ldi	r20, 0x01	; 1
    37b8:	0e 94 70 15 	call	0x2ae0	; 0x2ae0 <GPIO_voidSetPinVal>
    37bc:	83 e0       	ldi	r24, 0x03	; 3
    37be:	65 e0       	ldi	r22, 0x05	; 5
    37c0:	41 e0       	ldi	r20, 0x01	; 1
    37c2:	0e 94 70 15 	call	0x2ae0	; 0x2ae0 <GPIO_voidSetPinVal>
    37c6:	83 e0       	ldi	r24, 0x03	; 3
    37c8:	66 e0       	ldi	r22, 0x06	; 6
    37ca:	41 e0       	ldi	r20, 0x01	; 1
    37cc:	0e 94 70 15 	call	0x2ae0	; 0x2ae0 <GPIO_voidSetPinVal>
    37d0:	83 e0       	ldi	r24, 0x03	; 3
    37d2:	67 e0       	ldi	r22, 0x07	; 7
    37d4:	41 e0       	ldi	r20, 0x01	; 1
    37d6:	0e 94 70 15 	call	0x2ae0	; 0x2ae0 <GPIO_voidSetPinVal>
    37da:	08 95       	ret

000037dc <Array_voidClear>:
    37dc:	fc 01       	movw	r30, r24
    37de:	80 e0       	ldi	r24, 0x00	; 0
    37e0:	0a c0       	rjmp	.+20     	; 0x37f6 <Array_voidClear+0x1a>
    37e2:	44 23       	and	r20, r20
    37e4:	11 f4       	brne	.+4      	; 0x37ea <Array_voidClear+0xe>
    37e6:	10 82       	st	Z, r1
    37e8:	04 c0       	rjmp	.+8      	; 0x37f2 <Array_voidClear+0x16>
    37ea:	41 30       	cpi	r20, 0x01	; 1
    37ec:	11 f4       	brne	.+4      	; 0x37f2 <Array_voidClear+0x16>
    37ee:	11 82       	std	Z+1, r1	; 0x01
    37f0:	10 82       	st	Z, r1
    37f2:	8f 5f       	subi	r24, 0xFF	; 255
    37f4:	31 96       	adiw	r30, 0x01	; 1
    37f6:	86 17       	cp	r24, r22
    37f8:	a0 f3       	brcs	.-24     	; 0x37e2 <Array_voidClear+0x6>
    37fa:	08 95       	ret

000037fc <StringTOValues>:
    37fc:	cf 93       	push	r28
    37fe:	df 93       	push	r29
    3800:	ec 01       	movw	r28, r24
    3802:	a0 e0       	ldi	r26, 0x00	; 0
    3804:	50 e0       	ldi	r21, 0x00	; 0
    3806:	2f c0       	rjmp	.+94     	; 0x3866 <StringTOValues+0x6a>
    3808:	4a 32       	cpi	r20, 0x2A	; 42
    380a:	a8 f0       	brcs	.+42     	; 0x3836 <StringTOValues+0x3a>
    380c:	4c 32       	cpi	r20, 0x2C	; 44
    380e:	20 f0       	brcs	.+8      	; 0x3818 <StringTOValues+0x1c>
    3810:	4d 32       	cpi	r20, 0x2D	; 45
    3812:	11 f0       	breq	.+4      	; 0x3818 <StringTOValues+0x1c>
    3814:	4f 32       	cpi	r20, 0x2F	; 47
    3816:	79 f4       	brne	.+30     	; 0x3836 <StringTOValues+0x3a>
    3818:	25 2f       	mov	r18, r21
    381a:	2f 5f       	subi	r18, 0xFF	; 255
    381c:	e2 2f       	mov	r30, r18
    381e:	f0 e0       	ldi	r31, 0x00	; 0
    3820:	ee 0f       	add	r30, r30
    3822:	ff 1f       	adc	r31, r31
    3824:	e6 0f       	add	r30, r22
    3826:	f7 1f       	adc	r31, r23
    3828:	84 2f       	mov	r24, r20
    382a:	90 e0       	ldi	r25, 0x00	; 0
    382c:	90 68       	ori	r25, 0x80	; 128
    382e:	91 83       	std	Z+1, r25	; 0x01
    3830:	80 83       	st	Z, r24
    3832:	5e 5f       	subi	r21, 0xFE	; 254
    3834:	17 c0       	rjmp	.+46     	; 0x3864 <StringTOValues+0x68>
    3836:	e5 2f       	mov	r30, r21
    3838:	f0 e0       	ldi	r31, 0x00	; 0
    383a:	ee 0f       	add	r30, r30
    383c:	ff 1f       	adc	r31, r31
    383e:	e6 0f       	add	r30, r22
    3840:	f7 1f       	adc	r31, r23
    3842:	40 53       	subi	r20, 0x30	; 48
    3844:	80 81       	ld	r24, Z
    3846:	91 81       	ldd	r25, Z+1	; 0x01
    3848:	9c 01       	movw	r18, r24
    384a:	b3 e0       	ldi	r27, 0x03	; 3
    384c:	22 0f       	add	r18, r18
    384e:	33 1f       	adc	r19, r19
    3850:	ba 95       	dec	r27
    3852:	e1 f7       	brne	.-8      	; 0x384c <StringTOValues+0x50>
    3854:	88 0f       	add	r24, r24
    3856:	99 1f       	adc	r25, r25
    3858:	28 0f       	add	r18, r24
    385a:	39 1f       	adc	r19, r25
    385c:	24 0f       	add	r18, r20
    385e:	31 1d       	adc	r19, r1
    3860:	31 83       	std	Z+1, r19	; 0x01
    3862:	20 83       	st	Z, r18
    3864:	af 5f       	subi	r26, 0xFF	; 255
    3866:	fe 01       	movw	r30, r28
    3868:	ea 0f       	add	r30, r26
    386a:	f1 1d       	adc	r31, r1
    386c:	40 81       	ld	r20, Z
    386e:	44 23       	and	r20, r20
    3870:	59 f6       	brne	.-106    	; 0x3808 <StringTOValues+0xc>
    3872:	85 2f       	mov	r24, r21
    3874:	df 91       	pop	r29
    3876:	cf 91       	pop	r28
    3878:	08 95       	ret

0000387a <isEmpty>:
    387a:	fc 01       	movw	r30, r24
    387c:	00 97       	sbiw	r24, 0x00	; 0
    387e:	11 f4       	brne	.+4      	; 0x3884 <isEmpty+0xa>
    3880:	2f ef       	ldi	r18, 0xFF	; 255
    3882:	05 c0       	rjmp	.+10     	; 0x388e <isEmpty+0x14>
    3884:	20 e0       	ldi	r18, 0x00	; 0
    3886:	80 81       	ld	r24, Z
    3888:	8f 3f       	cpi	r24, 0xFF	; 255
    388a:	09 f4       	brne	.+2      	; 0x388e <isEmpty+0x14>
    388c:	21 e0       	ldi	r18, 0x01	; 1
    388e:	82 2f       	mov	r24, r18
    3890:	08 95       	ret

00003892 <peek>:
    3892:	fc 01       	movw	r30, r24
    3894:	00 97       	sbiw	r24, 0x00	; 0
    3896:	29 f4       	brne	.+10     	; 0x38a2 <peek+0x10>
    3898:	24 e2       	ldi	r18, 0x24	; 36
    389a:	30 e0       	ldi	r19, 0x00	; 0
    389c:	40 e0       	ldi	r20, 0x00	; 0
    389e:	50 e0       	ldi	r21, 0x00	; 0
    38a0:	11 c0       	rjmp	.+34     	; 0x38c4 <peek+0x32>
    38a2:	80 81       	ld	r24, Z
    38a4:	99 27       	eor	r25, r25
    38a6:	87 fd       	sbrc	r24, 7
    38a8:	90 95       	com	r25
    38aa:	88 0f       	add	r24, r24
    38ac:	99 1f       	adc	r25, r25
    38ae:	88 0f       	add	r24, r24
    38b0:	99 1f       	adc	r25, r25
    38b2:	02 80       	ldd	r0, Z+2	; 0x02
    38b4:	f3 81       	ldd	r31, Z+3	; 0x03
    38b6:	e0 2d       	mov	r30, r0
    38b8:	e8 0f       	add	r30, r24
    38ba:	f9 1f       	adc	r31, r25
    38bc:	20 81       	ld	r18, Z
    38be:	31 81       	ldd	r19, Z+1	; 0x01
    38c0:	42 81       	ldd	r20, Z+2	; 0x02
    38c2:	53 81       	ldd	r21, Z+3	; 0x03
    38c4:	b9 01       	movw	r22, r18
    38c6:	ca 01       	movw	r24, r20
    38c8:	08 95       	ret

000038ca <pop>:
    38ca:	dc 01       	movw	r26, r24
    38cc:	00 97       	sbiw	r24, 0x00	; 0
    38ce:	c1 f0       	breq	.+48     	; 0x3900 <pop+0x36>
    38d0:	6c 91       	ld	r22, X
    38d2:	6f 3f       	cpi	r22, 0xFF	; 255
    38d4:	a9 f0       	breq	.+42     	; 0x3900 <pop+0x36>
    38d6:	86 2f       	mov	r24, r22
    38d8:	99 27       	eor	r25, r25
    38da:	87 fd       	sbrc	r24, 7
    38dc:	90 95       	com	r25
    38de:	88 0f       	add	r24, r24
    38e0:	99 1f       	adc	r25, r25
    38e2:	88 0f       	add	r24, r24
    38e4:	99 1f       	adc	r25, r25
    38e6:	12 96       	adiw	r26, 0x02	; 2
    38e8:	ed 91       	ld	r30, X+
    38ea:	fc 91       	ld	r31, X
    38ec:	13 97       	sbiw	r26, 0x03	; 3
    38ee:	e8 0f       	add	r30, r24
    38f0:	f9 1f       	adc	r31, r25
    38f2:	20 81       	ld	r18, Z
    38f4:	31 81       	ldd	r19, Z+1	; 0x01
    38f6:	42 81       	ldd	r20, Z+2	; 0x02
    38f8:	53 81       	ldd	r21, Z+3	; 0x03
    38fa:	61 50       	subi	r22, 0x01	; 1
    38fc:	6c 93       	st	X, r22
    38fe:	04 c0       	rjmp	.+8      	; 0x3908 <pop+0x3e>
    3900:	24 e2       	ldi	r18, 0x24	; 36
    3902:	30 e0       	ldi	r19, 0x00	; 0
    3904:	40 e0       	ldi	r20, 0x00	; 0
    3906:	50 e0       	ldi	r21, 0x00	; 0
    3908:	b9 01       	movw	r22, r18
    390a:	ca 01       	movw	r24, r20
    390c:	08 95       	ret

0000390e <push>:
    390e:	dc 01       	movw	r26, r24
    3910:	00 97       	sbiw	r24, 0x00	; 0
    3912:	a1 f0       	breq	.+40     	; 0x393c <push+0x2e>
    3914:	12 96       	adiw	r26, 0x02	; 2
    3916:	ed 91       	ld	r30, X+
    3918:	fc 91       	ld	r31, X
    391a:	13 97       	sbiw	r26, 0x03	; 3
    391c:	8c 91       	ld	r24, X
    391e:	8f 5f       	subi	r24, 0xFF	; 255
    3920:	8c 93       	st	X, r24
    3922:	99 27       	eor	r25, r25
    3924:	87 fd       	sbrc	r24, 7
    3926:	90 95       	com	r25
    3928:	88 0f       	add	r24, r24
    392a:	99 1f       	adc	r25, r25
    392c:	88 0f       	add	r24, r24
    392e:	99 1f       	adc	r25, r25
    3930:	e8 0f       	add	r30, r24
    3932:	f9 1f       	adc	r31, r25
    3934:	40 83       	st	Z, r20
    3936:	51 83       	std	Z+1, r21	; 0x01
    3938:	62 83       	std	Z+2, r22	; 0x02
    393a:	73 83       	std	Z+3, r23	; 0x03
    393c:	08 95       	ret

0000393e <isOperand>:
    393e:	89 2f       	mov	r24, r25
    3940:	80 95       	com	r24
    3942:	88 1f       	adc	r24, r24
    3944:	88 27       	eor	r24, r24
    3946:	88 1f       	adc	r24, r24
    3948:	08 95       	ret

0000394a <Prec>:
    394a:	8d 32       	cpi	r24, 0x2D	; 45
    394c:	71 f0       	breq	.+28     	; 0x396a <Prec+0x20>
    394e:	8e 32       	cpi	r24, 0x2E	; 46
    3950:	28 f4       	brcc	.+10     	; 0x395c <Prec+0x12>
    3952:	8a 32       	cpi	r24, 0x2A	; 42
    3954:	41 f0       	breq	.+16     	; 0x3966 <Prec+0x1c>
    3956:	8b 32       	cpi	r24, 0x2B	; 43
    3958:	61 f4       	brne	.+24     	; 0x3972 <Prec+0x28>
    395a:	07 c0       	rjmp	.+14     	; 0x396a <Prec+0x20>
    395c:	8f 32       	cpi	r24, 0x2F	; 47
    395e:	19 f0       	breq	.+6      	; 0x3966 <Prec+0x1c>
    3960:	8e 35       	cpi	r24, 0x5E	; 94
    3962:	39 f4       	brne	.+14     	; 0x3972 <Prec+0x28>
    3964:	04 c0       	rjmp	.+8      	; 0x396e <Prec+0x24>
    3966:	82 e0       	ldi	r24, 0x02	; 2
    3968:	08 95       	ret
    396a:	81 e0       	ldi	r24, 0x01	; 1
    396c:	08 95       	ret
    396e:	83 e0       	ldi	r24, 0x03	; 3
    3970:	08 95       	ret
    3972:	8f ef       	ldi	r24, 0xFF	; 255
    3974:	08 95       	ret

00003976 <createStack>:
    3976:	1f 93       	push	r17
    3978:	cf 93       	push	r28
    397a:	df 93       	push	r29
    397c:	18 2f       	mov	r17, r24
    397e:	84 e0       	ldi	r24, 0x04	; 4
    3980:	90 e0       	ldi	r25, 0x00	; 0
    3982:	0e 94 d3 1f 	call	0x3fa6	; 0x3fa6 <malloc>
    3986:	ec 01       	movw	r28, r24
    3988:	00 97       	sbiw	r24, 0x00	; 0
    398a:	69 f4       	brne	.+26     	; 0x39a6 <createStack+0x30>
    398c:	8f ef       	ldi	r24, 0xFF	; 255
    398e:	88 83       	st	Y, r24
    3990:	19 83       	std	Y+1, r17	; 0x01
    3992:	81 2f       	mov	r24, r17
    3994:	90 e0       	ldi	r25, 0x00	; 0
    3996:	88 0f       	add	r24, r24
    3998:	99 1f       	adc	r25, r25
    399a:	88 0f       	add	r24, r24
    399c:	99 1f       	adc	r25, r25
    399e:	0e 94 d3 1f 	call	0x3fa6	; 0x3fa6 <malloc>
    39a2:	8a 83       	std	Y+2, r24	; 0x02
    39a4:	9b 83       	std	Y+3, r25	; 0x03
    39a6:	80 e0       	ldi	r24, 0x00	; 0
    39a8:	90 e0       	ldi	r25, 0x00	; 0
    39aa:	df 91       	pop	r29
    39ac:	cf 91       	pop	r28
    39ae:	1f 91       	pop	r17
    39b0:	08 95       	ret

000039b2 <evaluatePostfix>:
    39b2:	6f 92       	push	r6
    39b4:	7f 92       	push	r7
    39b6:	8f 92       	push	r8
    39b8:	9f 92       	push	r9
    39ba:	af 92       	push	r10
    39bc:	bf 92       	push	r11
    39be:	cf 92       	push	r12
    39c0:	df 92       	push	r13
    39c2:	ef 92       	push	r14
    39c4:	ff 92       	push	r15
    39c6:	0f 93       	push	r16
    39c8:	1f 93       	push	r17
    39ca:	cf 93       	push	r28
    39cc:	df 93       	push	r29
    39ce:	3c 01       	movw	r6, r24
    39d0:	86 2e       	mov	r8, r22
    39d2:	86 2f       	mov	r24, r22
    39d4:	0e 94 bb 1c 	call	0x3976	; 0x3976 <createStack>
    39d8:	7c 01       	movw	r14, r24
    39da:	00 97       	sbiw	r24, 0x00	; 0
    39dc:	29 f4       	brne	.+10     	; 0x39e8 <evaluatePostfix+0x36>
    39de:	2f ef       	ldi	r18, 0xFF	; 255
    39e0:	3f ef       	ldi	r19, 0xFF	; 255
    39e2:	4f ef       	ldi	r20, 0xFF	; 255
    39e4:	5f ef       	ldi	r21, 0xFF	; 255
    39e6:	ad c0       	rjmp	.+346    	; 0x3b42 <evaluatePostfix+0x190>
    39e8:	99 24       	eor	r9, r9
    39ea:	c9 2d       	mov	r28, r9
    39ec:	d0 e0       	ldi	r29, 0x00	; 0
    39ee:	cc 0f       	add	r28, r28
    39f0:	dd 1f       	adc	r29, r29
    39f2:	c6 0d       	add	r28, r6
    39f4:	d7 1d       	adc	r29, r7
    39f6:	28 81       	ld	r18, Y
    39f8:	39 81       	ldd	r19, Y+1	; 0x01
    39fa:	37 fd       	sbrc	r19, 7
    39fc:	19 c0       	rjmp	.+50     	; 0x3a30 <evaluatePostfix+0x7e>
    39fe:	d7 01       	movw	r26, r14
    3a00:	12 96       	adiw	r26, 0x02	; 2
    3a02:	ed 91       	ld	r30, X+
    3a04:	fc 91       	ld	r31, X
    3a06:	13 97       	sbiw	r26, 0x03	; 3
    3a08:	8c 91       	ld	r24, X
    3a0a:	8f 5f       	subi	r24, 0xFF	; 255
    3a0c:	8c 93       	st	X, r24
    3a0e:	99 27       	eor	r25, r25
    3a10:	87 fd       	sbrc	r24, 7
    3a12:	90 95       	com	r25
    3a14:	88 0f       	add	r24, r24
    3a16:	99 1f       	adc	r25, r25
    3a18:	88 0f       	add	r24, r24
    3a1a:	99 1f       	adc	r25, r25
    3a1c:	e8 0f       	add	r30, r24
    3a1e:	f9 1f       	adc	r31, r25
    3a20:	c9 01       	movw	r24, r18
    3a22:	a0 e0       	ldi	r26, 0x00	; 0
    3a24:	b0 e0       	ldi	r27, 0x00	; 0
    3a26:	80 83       	st	Z, r24
    3a28:	91 83       	std	Z+1, r25	; 0x01
    3a2a:	a2 83       	std	Z+2, r26	; 0x02
    3a2c:	b3 83       	std	Z+3, r27	; 0x03
    3a2e:	80 c0       	rjmp	.+256    	; 0x3b30 <evaluatePostfix+0x17e>
    3a30:	c7 01       	movw	r24, r14
    3a32:	0e 94 65 1c 	call	0x38ca	; 0x38ca <pop>
    3a36:	5b 01       	movw	r10, r22
    3a38:	6c 01       	movw	r12, r24
    3a3a:	c7 01       	movw	r24, r14
    3a3c:	0e 94 65 1c 	call	0x38ca	; 0x38ca <pop>
    3a40:	9b 01       	movw	r18, r22
    3a42:	ac 01       	movw	r20, r24
    3a44:	88 81       	ld	r24, Y
    3a46:	8b 32       	cpi	r24, 0x2B	; 43
    3a48:	61 f0       	breq	.+24     	; 0x3a62 <evaluatePostfix+0xb0>
    3a4a:	8c 32       	cpi	r24, 0x2C	; 44
    3a4c:	20 f4       	brcc	.+8      	; 0x3a56 <evaluatePostfix+0xa4>
    3a4e:	8a 32       	cpi	r24, 0x2A	; 42
    3a50:	09 f0       	breq	.+2      	; 0x3a54 <evaluatePostfix+0xa2>
    3a52:	6e c0       	rjmp	.+220    	; 0x3b30 <evaluatePostfix+0x17e>
    3a54:	36 c0       	rjmp	.+108    	; 0x3ac2 <evaluatePostfix+0x110>
    3a56:	8d 32       	cpi	r24, 0x2D	; 45
    3a58:	d1 f0       	breq	.+52     	; 0x3a8e <evaluatePostfix+0xdc>
    3a5a:	8f 32       	cpi	r24, 0x2F	; 47
    3a5c:	09 f0       	breq	.+2      	; 0x3a60 <evaluatePostfix+0xae>
    3a5e:	68 c0       	rjmp	.+208    	; 0x3b30 <evaluatePostfix+0x17e>
    3a60:	4c c0       	rjmp	.+152    	; 0x3afa <evaluatePostfix+0x148>
    3a62:	d7 01       	movw	r26, r14
    3a64:	12 96       	adiw	r26, 0x02	; 2
    3a66:	ed 91       	ld	r30, X+
    3a68:	fc 91       	ld	r31, X
    3a6a:	13 97       	sbiw	r26, 0x03	; 3
    3a6c:	8c 91       	ld	r24, X
    3a6e:	8f 5f       	subi	r24, 0xFF	; 255
    3a70:	8c 93       	st	X, r24
    3a72:	99 27       	eor	r25, r25
    3a74:	87 fd       	sbrc	r24, 7
    3a76:	90 95       	com	r25
    3a78:	88 0f       	add	r24, r24
    3a7a:	99 1f       	adc	r25, r25
    3a7c:	88 0f       	add	r24, r24
    3a7e:	99 1f       	adc	r25, r25
    3a80:	e8 0f       	add	r30, r24
    3a82:	f9 1f       	adc	r31, r25
    3a84:	2a 0d       	add	r18, r10
    3a86:	3b 1d       	adc	r19, r11
    3a88:	4c 1d       	adc	r20, r12
    3a8a:	5d 1d       	adc	r21, r13
    3a8c:	15 c0       	rjmp	.+42     	; 0x3ab8 <evaluatePostfix+0x106>
    3a8e:	d7 01       	movw	r26, r14
    3a90:	12 96       	adiw	r26, 0x02	; 2
    3a92:	ed 91       	ld	r30, X+
    3a94:	fc 91       	ld	r31, X
    3a96:	13 97       	sbiw	r26, 0x03	; 3
    3a98:	8c 91       	ld	r24, X
    3a9a:	8f 5f       	subi	r24, 0xFF	; 255
    3a9c:	8c 93       	st	X, r24
    3a9e:	99 27       	eor	r25, r25
    3aa0:	87 fd       	sbrc	r24, 7
    3aa2:	90 95       	com	r25
    3aa4:	88 0f       	add	r24, r24
    3aa6:	99 1f       	adc	r25, r25
    3aa8:	88 0f       	add	r24, r24
    3aaa:	99 1f       	adc	r25, r25
    3aac:	e8 0f       	add	r30, r24
    3aae:	f9 1f       	adc	r31, r25
    3ab0:	2a 19       	sub	r18, r10
    3ab2:	3b 09       	sbc	r19, r11
    3ab4:	4c 09       	sbc	r20, r12
    3ab6:	5d 09       	sbc	r21, r13
    3ab8:	20 83       	st	Z, r18
    3aba:	31 83       	std	Z+1, r19	; 0x01
    3abc:	42 83       	std	Z+2, r20	; 0x02
    3abe:	53 83       	std	Z+3, r21	; 0x03
    3ac0:	37 c0       	rjmp	.+110    	; 0x3b30 <evaluatePostfix+0x17e>
    3ac2:	f7 01       	movw	r30, r14
    3ac4:	02 81       	ldd	r16, Z+2	; 0x02
    3ac6:	13 81       	ldd	r17, Z+3	; 0x03
    3ac8:	80 81       	ld	r24, Z
    3aca:	8f 5f       	subi	r24, 0xFF	; 255
    3acc:	80 83       	st	Z, r24
    3ace:	99 27       	eor	r25, r25
    3ad0:	87 fd       	sbrc	r24, 7
    3ad2:	90 95       	com	r25
    3ad4:	88 0f       	add	r24, r24
    3ad6:	99 1f       	adc	r25, r25
    3ad8:	88 0f       	add	r24, r24
    3ada:	99 1f       	adc	r25, r25
    3adc:	08 0f       	add	r16, r24
    3ade:	19 1f       	adc	r17, r25
    3ae0:	ca 01       	movw	r24, r20
    3ae2:	b9 01       	movw	r22, r18
    3ae4:	a6 01       	movw	r20, r12
    3ae6:	95 01       	movw	r18, r10
    3ae8:	0e 94 40 1f 	call	0x3e80	; 0x3e80 <__mulsi3>
    3aec:	d8 01       	movw	r26, r16
    3aee:	6d 93       	st	X+, r22
    3af0:	7d 93       	st	X+, r23
    3af2:	8d 93       	st	X+, r24
    3af4:	9c 93       	st	X, r25
    3af6:	13 97       	sbiw	r26, 0x03	; 3
    3af8:	1b c0       	rjmp	.+54     	; 0x3b30 <evaluatePostfix+0x17e>
    3afa:	f7 01       	movw	r30, r14
    3afc:	02 81       	ldd	r16, Z+2	; 0x02
    3afe:	13 81       	ldd	r17, Z+3	; 0x03
    3b00:	80 81       	ld	r24, Z
    3b02:	8f 5f       	subi	r24, 0xFF	; 255
    3b04:	80 83       	st	Z, r24
    3b06:	99 27       	eor	r25, r25
    3b08:	87 fd       	sbrc	r24, 7
    3b0a:	90 95       	com	r25
    3b0c:	88 0f       	add	r24, r24
    3b0e:	99 1f       	adc	r25, r25
    3b10:	88 0f       	add	r24, r24
    3b12:	99 1f       	adc	r25, r25
    3b14:	08 0f       	add	r16, r24
    3b16:	19 1f       	adc	r17, r25
    3b18:	ca 01       	movw	r24, r20
    3b1a:	b9 01       	movw	r22, r18
    3b1c:	a6 01       	movw	r20, r12
    3b1e:	95 01       	movw	r18, r10
    3b20:	0e 94 5f 1f 	call	0x3ebe	; 0x3ebe <__divmodsi4>
    3b24:	d8 01       	movw	r26, r16
    3b26:	2d 93       	st	X+, r18
    3b28:	3d 93       	st	X+, r19
    3b2a:	4d 93       	st	X+, r20
    3b2c:	5c 93       	st	X, r21
    3b2e:	13 97       	sbiw	r26, 0x03	; 3
    3b30:	93 94       	inc	r9
    3b32:	89 14       	cp	r8, r9
    3b34:	08 f0       	brcs	.+2      	; 0x3b38 <evaluatePostfix+0x186>
    3b36:	59 cf       	rjmp	.-334    	; 0x39ea <evaluatePostfix+0x38>
    3b38:	c7 01       	movw	r24, r14
    3b3a:	0e 94 65 1c 	call	0x38ca	; 0x38ca <pop>
    3b3e:	9b 01       	movw	r18, r22
    3b40:	ac 01       	movw	r20, r24
    3b42:	b9 01       	movw	r22, r18
    3b44:	ca 01       	movw	r24, r20
    3b46:	df 91       	pop	r29
    3b48:	cf 91       	pop	r28
    3b4a:	1f 91       	pop	r17
    3b4c:	0f 91       	pop	r16
    3b4e:	ff 90       	pop	r15
    3b50:	ef 90       	pop	r14
    3b52:	df 90       	pop	r13
    3b54:	cf 90       	pop	r12
    3b56:	bf 90       	pop	r11
    3b58:	af 90       	pop	r10
    3b5a:	9f 90       	pop	r9
    3b5c:	8f 90       	pop	r8
    3b5e:	7f 90       	pop	r7
    3b60:	6f 90       	pop	r6
    3b62:	08 95       	ret

00003b64 <infixToPostfix>:
    3b64:	4f 92       	push	r4
    3b66:	5f 92       	push	r5
    3b68:	7f 92       	push	r7
    3b6a:	8f 92       	push	r8
    3b6c:	9f 92       	push	r9
    3b6e:	af 92       	push	r10
    3b70:	bf 92       	push	r11
    3b72:	cf 92       	push	r12
    3b74:	df 92       	push	r13
    3b76:	ef 92       	push	r14
    3b78:	ff 92       	push	r15
    3b7a:	0f 93       	push	r16
    3b7c:	1f 93       	push	r17
    3b7e:	cf 93       	push	r28
    3b80:	df 93       	push	r29
    3b82:	4c 01       	movw	r8, r24
    3b84:	16 2f       	mov	r17, r22
    3b86:	86 2f       	mov	r24, r22
    3b88:	0e 94 bb 1c 	call	0x3976	; 0x3976 <createStack>
    3b8c:	7c 01       	movw	r14, r24
    3b8e:	00 97       	sbiw	r24, 0x00	; 0
    3b90:	09 f4       	brne	.+2      	; 0x3b94 <infixToPostfix+0x30>
    3b92:	7f c0       	rjmp	.+254    	; 0x3c92 <infixToPostfix+0x12e>
    3b94:	64 01       	movw	r12, r8
    3b96:	0f ef       	ldi	r16, 0xFF	; 255
    3b98:	aa 24       	eor	r10, r10
    3b9a:	bb 24       	eor	r11, r11
    3b9c:	41 2e       	mov	r4, r17
    3b9e:	55 24       	eor	r5, r5
    3ba0:	45 c0       	rjmp	.+138    	; 0x3c2c <infixToPostfix+0xc8>
    3ba2:	d6 01       	movw	r26, r12
    3ba4:	8d 91       	ld	r24, X+
    3ba6:	9c 91       	ld	r25, X
    3ba8:	20 2f       	mov	r18, r16
    3baa:	2f 5f       	subi	r18, 0xFF	; 255
    3bac:	97 ff       	sbrs	r25, 7
    3bae:	09 c0       	rjmp	.+18     	; 0x3bc2 <infixToPostfix+0x5e>
    3bb0:	c2 2f       	mov	r28, r18
    3bb2:	dd 27       	eor	r29, r29
    3bb4:	c7 fd       	sbrc	r28, 7
    3bb6:	d0 95       	com	r29
    3bb8:	cc 0f       	add	r28, r28
    3bba:	dd 1f       	adc	r29, r29
    3bbc:	c8 0d       	add	r28, r8
    3bbe:	d9 1d       	adc	r29, r9
    3bc0:	12 c0       	rjmp	.+36     	; 0x3be6 <infixToPostfix+0x82>
    3bc2:	02 2f       	mov	r16, r18
    3bc4:	e2 2f       	mov	r30, r18
    3bc6:	ff 27       	eor	r31, r31
    3bc8:	e7 fd       	sbrc	r30, 7
    3bca:	f0 95       	com	r31
    3bcc:	ee 0f       	add	r30, r30
    3bce:	ff 1f       	adc	r31, r31
    3bd0:	e8 0d       	add	r30, r8
    3bd2:	f9 1d       	adc	r31, r9
    3bd4:	91 83       	std	Z+1, r25	; 0x01
    3bd6:	80 83       	st	Z, r24
    3bd8:	22 c0       	rjmp	.+68     	; 0x3c1e <infixToPostfix+0xba>
    3bda:	0f 5f       	subi	r16, 0xFF	; 255
    3bdc:	c7 01       	movw	r24, r14
    3bde:	0e 94 65 1c 	call	0x38ca	; 0x38ca <pop>
    3be2:	69 93       	st	Y+, r22
    3be4:	79 93       	st	Y+, r23
    3be6:	f7 01       	movw	r30, r14
    3be8:	10 81       	ld	r17, Z
    3bea:	1f 3f       	cpi	r17, 0xFF	; 255
    3bec:	89 f5       	brne	.+98     	; 0x3c50 <infixToPostfix+0xec>
    3bee:	d6 01       	movw	r26, r12
    3bf0:	8d 91       	ld	r24, X+
    3bf2:	9c 91       	ld	r25, X
    3bf4:	a0 e0       	ldi	r26, 0x00	; 0
    3bf6:	b0 e0       	ldi	r27, 0x00	; 0
    3bf8:	e7 01       	movw	r28, r14
    3bfa:	ea 81       	ldd	r30, Y+2	; 0x02
    3bfc:	fb 81       	ldd	r31, Y+3	; 0x03
    3bfe:	21 2f       	mov	r18, r17
    3c00:	2f 5f       	subi	r18, 0xFF	; 255
    3c02:	28 83       	st	Y, r18
    3c04:	33 27       	eor	r19, r19
    3c06:	27 fd       	sbrc	r18, 7
    3c08:	30 95       	com	r19
    3c0a:	22 0f       	add	r18, r18
    3c0c:	33 1f       	adc	r19, r19
    3c0e:	22 0f       	add	r18, r18
    3c10:	33 1f       	adc	r19, r19
    3c12:	e2 0f       	add	r30, r18
    3c14:	f3 1f       	adc	r31, r19
    3c16:	80 83       	st	Z, r24
    3c18:	91 83       	std	Z+1, r25	; 0x01
    3c1a:	a2 83       	std	Z+2, r26	; 0x02
    3c1c:	b3 83       	std	Z+3, r27	; 0x03
    3c1e:	08 94       	sec
    3c20:	a1 1c       	adc	r10, r1
    3c22:	b1 1c       	adc	r11, r1
    3c24:	e2 e0       	ldi	r30, 0x02	; 2
    3c26:	f0 e0       	ldi	r31, 0x00	; 0
    3c28:	ce 0e       	add	r12, r30
    3c2a:	df 1e       	adc	r13, r31
    3c2c:	4a 14       	cp	r4, r10
    3c2e:	5b 04       	cpc	r5, r11
    3c30:	0c f0       	brlt	.+2      	; 0x3c34 <infixToPostfix+0xd0>
    3c32:	b7 cf       	rjmp	.-146    	; 0x3ba2 <infixToPostfix+0x3e>
    3c34:	0f 5f       	subi	r16, 0xFF	; 255
    3c36:	c0 2f       	mov	r28, r16
    3c38:	dd 27       	eor	r29, r29
    3c3a:	c7 fd       	sbrc	r28, 7
    3c3c:	d0 95       	com	r29
    3c3e:	cc 0f       	add	r28, r28
    3c40:	dd 1f       	adc	r29, r29
    3c42:	c8 0d       	add	r28, r8
    3c44:	d9 1d       	adc	r29, r9
    3c46:	d7 01       	movw	r26, r14
    3c48:	8c 91       	ld	r24, X
    3c4a:	8f 3f       	cpi	r24, 0xFF	; 255
    3c4c:	e1 f4       	brne	.+56     	; 0x3c86 <infixToPostfix+0x122>
    3c4e:	21 c0       	rjmp	.+66     	; 0x3c92 <infixToPostfix+0x12e>
    3c50:	f6 01       	movw	r30, r12
    3c52:	80 81       	ld	r24, Z
    3c54:	0e 94 a5 1c 	call	0x394a	; 0x394a <Prec>
    3c58:	78 2e       	mov	r7, r24
    3c5a:	81 2f       	mov	r24, r17
    3c5c:	99 27       	eor	r25, r25
    3c5e:	87 fd       	sbrc	r24, 7
    3c60:	90 95       	com	r25
    3c62:	88 0f       	add	r24, r24
    3c64:	99 1f       	adc	r25, r25
    3c66:	88 0f       	add	r24, r24
    3c68:	99 1f       	adc	r25, r25
    3c6a:	d7 01       	movw	r26, r14
    3c6c:	12 96       	adiw	r26, 0x02	; 2
    3c6e:	ed 91       	ld	r30, X+
    3c70:	fc 91       	ld	r31, X
    3c72:	13 97       	sbiw	r26, 0x03	; 3
    3c74:	e8 0f       	add	r30, r24
    3c76:	f9 1f       	adc	r31, r25
    3c78:	80 81       	ld	r24, Z
    3c7a:	0e 94 a5 1c 	call	0x394a	; 0x394a <Prec>
    3c7e:	87 15       	cp	r24, r7
    3c80:	0c f0       	brlt	.+2      	; 0x3c84 <infixToPostfix+0x120>
    3c82:	ab cf       	rjmp	.-170    	; 0x3bda <infixToPostfix+0x76>
    3c84:	b4 cf       	rjmp	.-152    	; 0x3bee <infixToPostfix+0x8a>
    3c86:	c7 01       	movw	r24, r14
    3c88:	0e 94 65 1c 	call	0x38ca	; 0x38ca <pop>
    3c8c:	69 93       	st	Y+, r22
    3c8e:	79 93       	st	Y+, r23
    3c90:	da cf       	rjmp	.-76     	; 0x3c46 <infixToPostfix+0xe2>
    3c92:	8f ef       	ldi	r24, 0xFF	; 255
    3c94:	df 91       	pop	r29
    3c96:	cf 91       	pop	r28
    3c98:	1f 91       	pop	r17
    3c9a:	0f 91       	pop	r16
    3c9c:	ff 90       	pop	r15
    3c9e:	ef 90       	pop	r14
    3ca0:	df 90       	pop	r13
    3ca2:	cf 90       	pop	r12
    3ca4:	bf 90       	pop	r11
    3ca6:	af 90       	pop	r10
    3ca8:	9f 90       	pop	r9
    3caa:	8f 90       	pop	r8
    3cac:	7f 90       	pop	r7
    3cae:	5f 90       	pop	r5
    3cb0:	4f 90       	pop	r4
    3cb2:	08 95       	ret

00003cb4 <evaluateEquation>:
    3cb4:	ff 92       	push	r15
    3cb6:	0f 93       	push	r16
    3cb8:	1f 93       	push	r17
    3cba:	8c 01       	movw	r16, r24
    3cbc:	f6 2e       	mov	r15, r22
    3cbe:	0e 94 b2 1d 	call	0x3b64	; 0x3b64 <infixToPostfix>
    3cc2:	c8 01       	movw	r24, r16
    3cc4:	6f 2d       	mov	r22, r15
    3cc6:	0e 94 d9 1c 	call	0x39b2	; 0x39b2 <evaluatePostfix>
    3cca:	1f 91       	pop	r17
    3ccc:	0f 91       	pop	r16
    3cce:	ff 90       	pop	r15
    3cd0:	08 95       	ret

00003cd2 <main>:
    3cd2:	4f 92       	push	r4
    3cd4:	5f 92       	push	r5
    3cd6:	6f 92       	push	r6
    3cd8:	7f 92       	push	r7
    3cda:	8f 92       	push	r8
    3cdc:	9f 92       	push	r9
    3cde:	af 92       	push	r10
    3ce0:	bf 92       	push	r11
    3ce2:	cf 92       	push	r12
    3ce4:	df 92       	push	r13
    3ce6:	ef 92       	push	r14
    3ce8:	ff 92       	push	r15
    3cea:	0f 93       	push	r16
    3cec:	1f 93       	push	r17
    3cee:	df 93       	push	r29
    3cf0:	cf 93       	push	r28
    3cf2:	cd b7       	in	r28, 0x3d	; 61
    3cf4:	de b7       	in	r29, 0x3e	; 62
    3cf6:	cd 58       	subi	r28, 0x8D	; 141
    3cf8:	d0 40       	sbci	r29, 0x00	; 0
    3cfa:	0f b6       	in	r0, 0x3f	; 63
    3cfc:	f8 94       	cli
    3cfe:	de bf       	out	0x3e, r29	; 62
    3d00:	0f be       	out	0x3f, r0	; 63
    3d02:	cd bf       	out	0x3d, r28	; 61
    3d04:	39 e2       	ldi	r19, 0x29	; 41
    3d06:	e3 2e       	mov	r14, r19
    3d08:	f1 2c       	mov	r15, r1
    3d0a:	ec 0e       	add	r14, r28
    3d0c:	fd 1e       	adc	r15, r29
    3d0e:	84 e6       	ldi	r24, 0x64	; 100
    3d10:	f7 01       	movw	r30, r14
    3d12:	11 92       	st	Z+, r1
    3d14:	8a 95       	dec	r24
    3d16:	e9 f7       	brne	.-6      	; 0x3d12 <main+0x40>
    3d18:	8e 01       	movw	r16, r28
    3d1a:	0f 5f       	subi	r16, 0xFF	; 255
    3d1c:	1f 4f       	sbci	r17, 0xFF	; 255
    3d1e:	88 e2       	ldi	r24, 0x28	; 40
    3d20:	f8 01       	movw	r30, r16
    3d22:	11 92       	st	Z+, r1
    3d24:	8a 95       	dec	r24
    3d26:	e9 f7       	brne	.-6      	; 0x3d22 <main+0x50>
    3d28:	0e 94 07 1b 	call	0x360e	; 0x360e <CLCD_voidInit>
    3d2c:	0e 94 9d 1b 	call	0x373a	; 0x373a <KEYPAD_voidInit>
    3d30:	0e 94 ce 1a 	call	0x359c	; 0x359c <CLCD_voidClearScreen>
    3d34:	88 24       	eor	r8, r8
    3d36:	83 94       	inc	r8
    3d38:	99 24       	eor	r9, r9
    3d3a:	c3 57       	subi	r28, 0x73	; 115
    3d3c:	df 4f       	sbci	r29, 0xFF	; 255
    3d3e:	18 82       	st	Y, r1
    3d40:	cd 58       	subi	r28, 0x8D	; 141
    3d42:	d0 40       	sbci	r29, 0x00	; 0
    3d44:	37 01       	movw	r6, r14
    3d46:	28 01       	movw	r4, r16
    3d48:	ff e0       	ldi	r31, 0x0F	; 15
    3d4a:	f8 15       	cp	r31, r8
    3d4c:	20 f4       	brcc	.+8      	; 0x3d56 <main+0x84>
    3d4e:	87 e0       	ldi	r24, 0x07	; 7
    3d50:	0e 94 bd 1a 	call	0x357a	; 0x357a <CLCD_voidSendCommand>
    3d54:	04 c0       	rjmp	.+8      	; 0x3d5e <main+0x8c>
    3d56:	81 e0       	ldi	r24, 0x01	; 1
    3d58:	68 2d       	mov	r22, r8
    3d5a:	0e 94 d6 1a 	call	0x35ac	; 0x35ac <CLCD_voidGoToX_Y>
    3d5e:	0e 94 3b 1b 	call	0x3676	; 0x3676 <KEYPAD_voidGetPressedButton>
    3d62:	08 2f       	mov	r16, r24
    3d64:	88 23       	and	r24, r24
    3d66:	d9 f3       	breq	.-10     	; 0x3d5e <main+0x8c>
    3d68:	8d 33       	cpi	r24, 0x3D	; 61
    3d6a:	89 f5       	brne	.+98     	; 0x3dce <main+0xfc>
    3d6c:	8d e3       	ldi	r24, 0x3D	; 61
    3d6e:	0e 94 5b 18 	call	0x30b6	; 0x30b6 <CLCD_voidSendCharacter>
    3d72:	c3 01       	movw	r24, r6
    3d74:	b2 01       	movw	r22, r4
    3d76:	0e 94 fe 1b 	call	0x37fc	; 0x37fc <StringTOValues>
    3d7a:	68 2f       	mov	r22, r24
    3d7c:	c2 01       	movw	r24, r4
    3d7e:	0e 94 5a 1e 	call	0x3cb4	; 0x3cb4 <evaluateEquation>
    3d82:	5b 01       	movw	r10, r22
    3d84:	6c 01       	movw	r12, r24
    3d86:	97 ff       	sbrs	r25, 7
    3d88:	13 c0       	rjmp	.+38     	; 0x3db0 <main+0xde>
    3d8a:	8d e2       	ldi	r24, 0x2D	; 45
    3d8c:	0e 94 5b 18 	call	0x30b6	; 0x30b6 <CLCD_voidSendCharacter>
    3d90:	88 27       	eor	r24, r24
    3d92:	99 27       	eor	r25, r25
    3d94:	dc 01       	movw	r26, r24
    3d96:	8a 19       	sub	r24, r10
    3d98:	9b 09       	sbc	r25, r11
    3d9a:	ac 09       	sbc	r26, r12
    3d9c:	bd 09       	sbc	r27, r13
    3d9e:	7c 01       	movw	r14, r24
    3da0:	8d 01       	movw	r16, r26
    3da2:	11 0f       	add	r17, r17
    3da4:	ee 08       	sbc	r14, r14
    3da6:	fe 2c       	mov	r15, r14
    3da8:	87 01       	movw	r16, r14
    3daa:	9c 01       	movw	r18, r24
    3dac:	ad 01       	movw	r20, r26
    3dae:	08 c0       	rjmp	.+16     	; 0x3dc0 <main+0xee>
    3db0:	7b 01       	movw	r14, r22
    3db2:	8c 01       	movw	r16, r24
    3db4:	11 0f       	add	r17, r17
    3db6:	ee 08       	sbc	r14, r14
    3db8:	fe 2c       	mov	r15, r14
    3dba:	87 01       	movw	r16, r14
    3dbc:	95 01       	movw	r18, r10
    3dbe:	a6 01       	movw	r20, r12
    3dc0:	6e 2d       	mov	r22, r14
    3dc2:	7e 2d       	mov	r23, r14
    3dc4:	8e 2d       	mov	r24, r14
    3dc6:	9e 2d       	mov	r25, r14
    3dc8:	0e 94 6c 18 	call	0x30d8	; 0x30d8 <CLCD_voidSendNumber>
    3dcc:	bd cf       	rjmp	.-134    	; 0x3d48 <main+0x76>
    3dce:	83 34       	cpi	r24, 0x43	; 67
    3dd0:	e1 f4       	brne	.+56     	; 0x3e0a <main+0x138>
    3dd2:	0e 94 ce 1a 	call	0x359c	; 0x359c <CLCD_voidClearScreen>
    3dd6:	81 e0       	ldi	r24, 0x01	; 1
    3dd8:	61 e0       	ldi	r22, 0x01	; 1
    3dda:	0e 94 d6 1a 	call	0x35ac	; 0x35ac <CLCD_voidGoToX_Y>
    3dde:	c3 01       	movw	r24, r6
    3de0:	64 e6       	ldi	r22, 0x64	; 100
    3de2:	40 e0       	ldi	r20, 0x00	; 0
    3de4:	0e 94 ee 1b 	call	0x37dc	; 0x37dc <Array_voidClear>
    3de8:	c2 01       	movw	r24, r4
    3dea:	64 e1       	ldi	r22, 0x14	; 20
    3dec:	41 e0       	ldi	r20, 0x01	; 1
    3dee:	0e 94 ee 1b 	call	0x37dc	; 0x37dc <Array_voidClear>
    3df2:	86 e0       	ldi	r24, 0x06	; 6
    3df4:	0e 94 bd 1a 	call	0x357a	; 0x357a <CLCD_voidSendCommand>
    3df8:	88 24       	eor	r8, r8
    3dfa:	83 94       	inc	r8
    3dfc:	99 24       	eor	r9, r9
    3dfe:	c3 57       	subi	r28, 0x73	; 115
    3e00:	df 4f       	sbci	r29, 0xFF	; 255
    3e02:	18 82       	st	Y, r1
    3e04:	cd 58       	subi	r28, 0x8D	; 141
    3e06:	d0 40       	sbci	r29, 0x00	; 0
    3e08:	a6 cf       	rjmp	.-180    	; 0x3d56 <main+0x84>
    3e0a:	8b 32       	cpi	r24, 0x2B	; 43
    3e0c:	31 f0       	breq	.+12     	; 0x3e1a <main+0x148>
    3e0e:	8d 32       	cpi	r24, 0x2D	; 45
    3e10:	21 f0       	breq	.+8      	; 0x3e1a <main+0x148>
    3e12:	8a 32       	cpi	r24, 0x2A	; 42
    3e14:	11 f0       	breq	.+4      	; 0x3e1a <main+0x148>
    3e16:	8f 32       	cpi	r24, 0x2F	; 47
    3e18:	29 f5       	brne	.+74     	; 0x3e64 <main+0x192>
    3e1a:	c3 57       	subi	r28, 0x73	; 115
    3e1c:	df 4f       	sbci	r29, 0xFF	; 255
    3e1e:	88 81       	ld	r24, Y
    3e20:	cd 58       	subi	r28, 0x8D	; 141
    3e22:	d0 40       	sbci	r29, 0x00	; 0
    3e24:	81 30       	cpi	r24, 0x01	; 1
    3e26:	71 f4       	brne	.+28     	; 0x3e44 <main+0x172>
    3e28:	9a 94       	dec	r9
    3e2a:	f3 01       	movw	r30, r6
    3e2c:	e9 0d       	add	r30, r9
    3e2e:	f1 1d       	adc	r31, r1
    3e30:	93 94       	inc	r9
    3e32:	00 83       	st	Z, r16
    3e34:	68 2d       	mov	r22, r8
    3e36:	61 50       	subi	r22, 0x01	; 1
    3e38:	0e 94 d6 1a 	call	0x35ac	; 0x35ac <CLCD_voidGoToX_Y>
    3e3c:	80 2f       	mov	r24, r16
    3e3e:	0e 94 5b 18 	call	0x30b6	; 0x30b6 <CLCD_voidSendCharacter>
    3e42:	82 cf       	rjmp	.-252    	; 0x3d48 <main+0x76>
    3e44:	80 2f       	mov	r24, r16
    3e46:	0e 94 5b 18 	call	0x30b6	; 0x30b6 <CLCD_voidSendCharacter>
    3e4a:	f3 01       	movw	r30, r6
    3e4c:	e9 0d       	add	r30, r9
    3e4e:	f1 1d       	adc	r31, r1
    3e50:	00 83       	st	Z, r16
    3e52:	83 94       	inc	r8
    3e54:	93 94       	inc	r9
    3e56:	e1 e0       	ldi	r30, 0x01	; 1
    3e58:	c3 57       	subi	r28, 0x73	; 115
    3e5a:	df 4f       	sbci	r29, 0xFF	; 255
    3e5c:	e8 83       	st	Y, r30
    3e5e:	cd 58       	subi	r28, 0x8D	; 141
    3e60:	d0 40       	sbci	r29, 0x00	; 0
    3e62:	72 cf       	rjmp	.-284    	; 0x3d48 <main+0x76>
    3e64:	0e 94 5b 18 	call	0x30b6	; 0x30b6 <CLCD_voidSendCharacter>
    3e68:	f3 01       	movw	r30, r6
    3e6a:	e9 0d       	add	r30, r9
    3e6c:	f1 1d       	adc	r31, r1
    3e6e:	00 83       	st	Z, r16
    3e70:	83 94       	inc	r8
    3e72:	93 94       	inc	r9
    3e74:	c3 57       	subi	r28, 0x73	; 115
    3e76:	df 4f       	sbci	r29, 0xFF	; 255
    3e78:	18 82       	st	Y, r1
    3e7a:	cd 58       	subi	r28, 0x8D	; 141
    3e7c:	d0 40       	sbci	r29, 0x00	; 0
    3e7e:	64 cf       	rjmp	.-312    	; 0x3d48 <main+0x76>

00003e80 <__mulsi3>:
    3e80:	62 9f       	mul	r22, r18
    3e82:	d0 01       	movw	r26, r0
    3e84:	73 9f       	mul	r23, r19
    3e86:	f0 01       	movw	r30, r0
    3e88:	82 9f       	mul	r24, r18
    3e8a:	e0 0d       	add	r30, r0
    3e8c:	f1 1d       	adc	r31, r1
    3e8e:	64 9f       	mul	r22, r20
    3e90:	e0 0d       	add	r30, r0
    3e92:	f1 1d       	adc	r31, r1
    3e94:	92 9f       	mul	r25, r18
    3e96:	f0 0d       	add	r31, r0
    3e98:	83 9f       	mul	r24, r19
    3e9a:	f0 0d       	add	r31, r0
    3e9c:	74 9f       	mul	r23, r20
    3e9e:	f0 0d       	add	r31, r0
    3ea0:	65 9f       	mul	r22, r21
    3ea2:	f0 0d       	add	r31, r0
    3ea4:	99 27       	eor	r25, r25
    3ea6:	72 9f       	mul	r23, r18
    3ea8:	b0 0d       	add	r27, r0
    3eaa:	e1 1d       	adc	r30, r1
    3eac:	f9 1f       	adc	r31, r25
    3eae:	63 9f       	mul	r22, r19
    3eb0:	b0 0d       	add	r27, r0
    3eb2:	e1 1d       	adc	r30, r1
    3eb4:	f9 1f       	adc	r31, r25
    3eb6:	bd 01       	movw	r22, r26
    3eb8:	cf 01       	movw	r24, r30
    3eba:	11 24       	eor	r1, r1
    3ebc:	08 95       	ret

00003ebe <__divmodsi4>:
    3ebe:	97 fb       	bst	r25, 7
    3ec0:	09 2e       	mov	r0, r25
    3ec2:	05 26       	eor	r0, r21
    3ec4:	0e d0       	rcall	.+28     	; 0x3ee2 <__divmodsi4_neg1>
    3ec6:	57 fd       	sbrc	r21, 7
    3ec8:	04 d0       	rcall	.+8      	; 0x3ed2 <__divmodsi4_neg2>
    3eca:	14 d0       	rcall	.+40     	; 0x3ef4 <__udivmodsi4>
    3ecc:	0a d0       	rcall	.+20     	; 0x3ee2 <__divmodsi4_neg1>
    3ece:	00 1c       	adc	r0, r0
    3ed0:	38 f4       	brcc	.+14     	; 0x3ee0 <__divmodsi4_exit>

00003ed2 <__divmodsi4_neg2>:
    3ed2:	50 95       	com	r21
    3ed4:	40 95       	com	r20
    3ed6:	30 95       	com	r19
    3ed8:	21 95       	neg	r18
    3eda:	3f 4f       	sbci	r19, 0xFF	; 255
    3edc:	4f 4f       	sbci	r20, 0xFF	; 255
    3ede:	5f 4f       	sbci	r21, 0xFF	; 255

00003ee0 <__divmodsi4_exit>:
    3ee0:	08 95       	ret

00003ee2 <__divmodsi4_neg1>:
    3ee2:	f6 f7       	brtc	.-4      	; 0x3ee0 <__divmodsi4_exit>
    3ee4:	90 95       	com	r25
    3ee6:	80 95       	com	r24
    3ee8:	70 95       	com	r23
    3eea:	61 95       	neg	r22
    3eec:	7f 4f       	sbci	r23, 0xFF	; 255
    3eee:	8f 4f       	sbci	r24, 0xFF	; 255
    3ef0:	9f 4f       	sbci	r25, 0xFF	; 255
    3ef2:	08 95       	ret

00003ef4 <__udivmodsi4>:
    3ef4:	a1 e2       	ldi	r26, 0x21	; 33
    3ef6:	1a 2e       	mov	r1, r26
    3ef8:	aa 1b       	sub	r26, r26
    3efa:	bb 1b       	sub	r27, r27
    3efc:	fd 01       	movw	r30, r26
    3efe:	0d c0       	rjmp	.+26     	; 0x3f1a <__udivmodsi4_ep>

00003f00 <__udivmodsi4_loop>:
    3f00:	aa 1f       	adc	r26, r26
    3f02:	bb 1f       	adc	r27, r27
    3f04:	ee 1f       	adc	r30, r30
    3f06:	ff 1f       	adc	r31, r31
    3f08:	a2 17       	cp	r26, r18
    3f0a:	b3 07       	cpc	r27, r19
    3f0c:	e4 07       	cpc	r30, r20
    3f0e:	f5 07       	cpc	r31, r21
    3f10:	20 f0       	brcs	.+8      	; 0x3f1a <__udivmodsi4_ep>
    3f12:	a2 1b       	sub	r26, r18
    3f14:	b3 0b       	sbc	r27, r19
    3f16:	e4 0b       	sbc	r30, r20
    3f18:	f5 0b       	sbc	r31, r21

00003f1a <__udivmodsi4_ep>:
    3f1a:	66 1f       	adc	r22, r22
    3f1c:	77 1f       	adc	r23, r23
    3f1e:	88 1f       	adc	r24, r24
    3f20:	99 1f       	adc	r25, r25
    3f22:	1a 94       	dec	r1
    3f24:	69 f7       	brne	.-38     	; 0x3f00 <__udivmodsi4_loop>
    3f26:	60 95       	com	r22
    3f28:	70 95       	com	r23
    3f2a:	80 95       	com	r24
    3f2c:	90 95       	com	r25
    3f2e:	9b 01       	movw	r18, r22
    3f30:	ac 01       	movw	r20, r24
    3f32:	bd 01       	movw	r22, r26
    3f34:	cf 01       	movw	r24, r30
    3f36:	08 95       	ret

00003f38 <__prologue_saves__>:
    3f38:	2f 92       	push	r2
    3f3a:	3f 92       	push	r3
    3f3c:	4f 92       	push	r4
    3f3e:	5f 92       	push	r5
    3f40:	6f 92       	push	r6
    3f42:	7f 92       	push	r7
    3f44:	8f 92       	push	r8
    3f46:	9f 92       	push	r9
    3f48:	af 92       	push	r10
    3f4a:	bf 92       	push	r11
    3f4c:	cf 92       	push	r12
    3f4e:	df 92       	push	r13
    3f50:	ef 92       	push	r14
    3f52:	ff 92       	push	r15
    3f54:	0f 93       	push	r16
    3f56:	1f 93       	push	r17
    3f58:	cf 93       	push	r28
    3f5a:	df 93       	push	r29
    3f5c:	cd b7       	in	r28, 0x3d	; 61
    3f5e:	de b7       	in	r29, 0x3e	; 62
    3f60:	ca 1b       	sub	r28, r26
    3f62:	db 0b       	sbc	r29, r27
    3f64:	0f b6       	in	r0, 0x3f	; 63
    3f66:	f8 94       	cli
    3f68:	de bf       	out	0x3e, r29	; 62
    3f6a:	0f be       	out	0x3f, r0	; 63
    3f6c:	cd bf       	out	0x3d, r28	; 61
    3f6e:	09 94       	ijmp

00003f70 <__epilogue_restores__>:
    3f70:	2a 88       	ldd	r2, Y+18	; 0x12
    3f72:	39 88       	ldd	r3, Y+17	; 0x11
    3f74:	48 88       	ldd	r4, Y+16	; 0x10
    3f76:	5f 84       	ldd	r5, Y+15	; 0x0f
    3f78:	6e 84       	ldd	r6, Y+14	; 0x0e
    3f7a:	7d 84       	ldd	r7, Y+13	; 0x0d
    3f7c:	8c 84       	ldd	r8, Y+12	; 0x0c
    3f7e:	9b 84       	ldd	r9, Y+11	; 0x0b
    3f80:	aa 84       	ldd	r10, Y+10	; 0x0a
    3f82:	b9 84       	ldd	r11, Y+9	; 0x09
    3f84:	c8 84       	ldd	r12, Y+8	; 0x08
    3f86:	df 80       	ldd	r13, Y+7	; 0x07
    3f88:	ee 80       	ldd	r14, Y+6	; 0x06
    3f8a:	fd 80       	ldd	r15, Y+5	; 0x05
    3f8c:	0c 81       	ldd	r16, Y+4	; 0x04
    3f8e:	1b 81       	ldd	r17, Y+3	; 0x03
    3f90:	aa 81       	ldd	r26, Y+2	; 0x02
    3f92:	b9 81       	ldd	r27, Y+1	; 0x01
    3f94:	ce 0f       	add	r28, r30
    3f96:	d1 1d       	adc	r29, r1
    3f98:	0f b6       	in	r0, 0x3f	; 63
    3f9a:	f8 94       	cli
    3f9c:	de bf       	out	0x3e, r29	; 62
    3f9e:	0f be       	out	0x3f, r0	; 63
    3fa0:	cd bf       	out	0x3d, r28	; 61
    3fa2:	ed 01       	movw	r28, r26
    3fa4:	08 95       	ret

00003fa6 <malloc>:
    3fa6:	cf 93       	push	r28
    3fa8:	df 93       	push	r29
    3faa:	bc 01       	movw	r22, r24
    3fac:	82 30       	cpi	r24, 0x02	; 2
    3fae:	91 05       	cpc	r25, r1
    3fb0:	10 f4       	brcc	.+4      	; 0x3fb6 <malloc+0x10>
    3fb2:	62 e0       	ldi	r22, 0x02	; 2
    3fb4:	70 e0       	ldi	r23, 0x00	; 0
    3fb6:	a0 91 80 01 	lds	r26, 0x0180
    3fba:	b0 91 81 01 	lds	r27, 0x0181
    3fbe:	ed 01       	movw	r28, r26
    3fc0:	e0 e0       	ldi	r30, 0x00	; 0
    3fc2:	f0 e0       	ldi	r31, 0x00	; 0
    3fc4:	40 e0       	ldi	r20, 0x00	; 0
    3fc6:	50 e0       	ldi	r21, 0x00	; 0
    3fc8:	21 c0       	rjmp	.+66     	; 0x400c <malloc+0x66>
    3fca:	88 81       	ld	r24, Y
    3fcc:	99 81       	ldd	r25, Y+1	; 0x01
    3fce:	86 17       	cp	r24, r22
    3fd0:	97 07       	cpc	r25, r23
    3fd2:	69 f4       	brne	.+26     	; 0x3fee <malloc+0x48>
    3fd4:	8a 81       	ldd	r24, Y+2	; 0x02
    3fd6:	9b 81       	ldd	r25, Y+3	; 0x03
    3fd8:	30 97       	sbiw	r30, 0x00	; 0
    3fda:	19 f0       	breq	.+6      	; 0x3fe2 <malloc+0x3c>
    3fdc:	93 83       	std	Z+3, r25	; 0x03
    3fde:	82 83       	std	Z+2, r24	; 0x02
    3fe0:	04 c0       	rjmp	.+8      	; 0x3fea <malloc+0x44>
    3fe2:	90 93 81 01 	sts	0x0181, r25
    3fe6:	80 93 80 01 	sts	0x0180, r24
    3fea:	fe 01       	movw	r30, r28
    3fec:	34 c0       	rjmp	.+104    	; 0x4056 <malloc+0xb0>
    3fee:	68 17       	cp	r22, r24
    3ff0:	79 07       	cpc	r23, r25
    3ff2:	38 f4       	brcc	.+14     	; 0x4002 <malloc+0x5c>
    3ff4:	41 15       	cp	r20, r1
    3ff6:	51 05       	cpc	r21, r1
    3ff8:	19 f0       	breq	.+6      	; 0x4000 <malloc+0x5a>
    3ffa:	84 17       	cp	r24, r20
    3ffc:	95 07       	cpc	r25, r21
    3ffe:	08 f4       	brcc	.+2      	; 0x4002 <malloc+0x5c>
    4000:	ac 01       	movw	r20, r24
    4002:	fe 01       	movw	r30, r28
    4004:	8a 81       	ldd	r24, Y+2	; 0x02
    4006:	9b 81       	ldd	r25, Y+3	; 0x03
    4008:	9c 01       	movw	r18, r24
    400a:	e9 01       	movw	r28, r18
    400c:	20 97       	sbiw	r28, 0x00	; 0
    400e:	e9 f6       	brne	.-70     	; 0x3fca <malloc+0x24>
    4010:	41 15       	cp	r20, r1
    4012:	51 05       	cpc	r21, r1
    4014:	a9 f1       	breq	.+106    	; 0x4080 <malloc+0xda>
    4016:	ca 01       	movw	r24, r20
    4018:	86 1b       	sub	r24, r22
    401a:	97 0b       	sbc	r25, r23
    401c:	04 97       	sbiw	r24, 0x04	; 4
    401e:	08 f4       	brcc	.+2      	; 0x4022 <malloc+0x7c>
    4020:	ba 01       	movw	r22, r20
    4022:	e0 e0       	ldi	r30, 0x00	; 0
    4024:	f0 e0       	ldi	r31, 0x00	; 0
    4026:	2a c0       	rjmp	.+84     	; 0x407c <malloc+0xd6>
    4028:	8d 91       	ld	r24, X+
    402a:	9c 91       	ld	r25, X
    402c:	11 97       	sbiw	r26, 0x01	; 1
    402e:	84 17       	cp	r24, r20
    4030:	95 07       	cpc	r25, r21
    4032:	f9 f4       	brne	.+62     	; 0x4072 <malloc+0xcc>
    4034:	64 17       	cp	r22, r20
    4036:	75 07       	cpc	r23, r21
    4038:	81 f4       	brne	.+32     	; 0x405a <malloc+0xb4>
    403a:	12 96       	adiw	r26, 0x02	; 2
    403c:	8d 91       	ld	r24, X+
    403e:	9c 91       	ld	r25, X
    4040:	13 97       	sbiw	r26, 0x03	; 3
    4042:	30 97       	sbiw	r30, 0x00	; 0
    4044:	19 f0       	breq	.+6      	; 0x404c <malloc+0xa6>
    4046:	93 83       	std	Z+3, r25	; 0x03
    4048:	82 83       	std	Z+2, r24	; 0x02
    404a:	04 c0       	rjmp	.+8      	; 0x4054 <malloc+0xae>
    404c:	90 93 81 01 	sts	0x0181, r25
    4050:	80 93 80 01 	sts	0x0180, r24
    4054:	fd 01       	movw	r30, r26
    4056:	32 96       	adiw	r30, 0x02	; 2
    4058:	4f c0       	rjmp	.+158    	; 0x40f8 <malloc+0x152>
    405a:	ca 01       	movw	r24, r20
    405c:	86 1b       	sub	r24, r22
    405e:	97 0b       	sbc	r25, r23
    4060:	fd 01       	movw	r30, r26
    4062:	e8 0f       	add	r30, r24
    4064:	f9 1f       	adc	r31, r25
    4066:	61 93       	st	Z+, r22
    4068:	71 93       	st	Z+, r23
    406a:	02 97       	sbiw	r24, 0x02	; 2
    406c:	8d 93       	st	X+, r24
    406e:	9c 93       	st	X, r25
    4070:	43 c0       	rjmp	.+134    	; 0x40f8 <malloc+0x152>
    4072:	fd 01       	movw	r30, r26
    4074:	82 81       	ldd	r24, Z+2	; 0x02
    4076:	93 81       	ldd	r25, Z+3	; 0x03
    4078:	9c 01       	movw	r18, r24
    407a:	d9 01       	movw	r26, r18
    407c:	10 97       	sbiw	r26, 0x00	; 0
    407e:	a1 f6       	brne	.-88     	; 0x4028 <malloc+0x82>
    4080:	80 91 7e 01 	lds	r24, 0x017E
    4084:	90 91 7f 01 	lds	r25, 0x017F
    4088:	89 2b       	or	r24, r25
    408a:	41 f4       	brne	.+16     	; 0x409c <malloc+0xf6>
    408c:	80 91 6a 01 	lds	r24, 0x016A
    4090:	90 91 6b 01 	lds	r25, 0x016B
    4094:	90 93 7f 01 	sts	0x017F, r25
    4098:	80 93 7e 01 	sts	0x017E, r24
    409c:	40 91 6c 01 	lds	r20, 0x016C
    40a0:	50 91 6d 01 	lds	r21, 0x016D
    40a4:	41 15       	cp	r20, r1
    40a6:	51 05       	cpc	r21, r1
    40a8:	41 f4       	brne	.+16     	; 0x40ba <malloc+0x114>
    40aa:	4d b7       	in	r20, 0x3d	; 61
    40ac:	5e b7       	in	r21, 0x3e	; 62
    40ae:	80 91 68 01 	lds	r24, 0x0168
    40b2:	90 91 69 01 	lds	r25, 0x0169
    40b6:	48 1b       	sub	r20, r24
    40b8:	59 0b       	sbc	r21, r25
    40ba:	20 91 7e 01 	lds	r18, 0x017E
    40be:	30 91 7f 01 	lds	r19, 0x017F
    40c2:	24 17       	cp	r18, r20
    40c4:	35 07       	cpc	r19, r21
    40c6:	b0 f4       	brcc	.+44     	; 0x40f4 <malloc+0x14e>
    40c8:	ca 01       	movw	r24, r20
    40ca:	82 1b       	sub	r24, r18
    40cc:	93 0b       	sbc	r25, r19
    40ce:	86 17       	cp	r24, r22
    40d0:	97 07       	cpc	r25, r23
    40d2:	80 f0       	brcs	.+32     	; 0x40f4 <malloc+0x14e>
    40d4:	ab 01       	movw	r20, r22
    40d6:	4e 5f       	subi	r20, 0xFE	; 254
    40d8:	5f 4f       	sbci	r21, 0xFF	; 255
    40da:	84 17       	cp	r24, r20
    40dc:	95 07       	cpc	r25, r21
    40de:	50 f0       	brcs	.+20     	; 0x40f4 <malloc+0x14e>
    40e0:	42 0f       	add	r20, r18
    40e2:	53 1f       	adc	r21, r19
    40e4:	50 93 7f 01 	sts	0x017F, r21
    40e8:	40 93 7e 01 	sts	0x017E, r20
    40ec:	f9 01       	movw	r30, r18
    40ee:	61 93       	st	Z+, r22
    40f0:	71 93       	st	Z+, r23
    40f2:	02 c0       	rjmp	.+4      	; 0x40f8 <malloc+0x152>
    40f4:	e0 e0       	ldi	r30, 0x00	; 0
    40f6:	f0 e0       	ldi	r31, 0x00	; 0
    40f8:	cf 01       	movw	r24, r30
    40fa:	df 91       	pop	r29
    40fc:	cf 91       	pop	r28
    40fe:	08 95       	ret

00004100 <free>:
    4100:	cf 93       	push	r28
    4102:	df 93       	push	r29
    4104:	00 97       	sbiw	r24, 0x00	; 0
    4106:	09 f4       	brne	.+2      	; 0x410a <free+0xa>
    4108:	50 c0       	rjmp	.+160    	; 0x41aa <free+0xaa>
    410a:	ec 01       	movw	r28, r24
    410c:	22 97       	sbiw	r28, 0x02	; 2
    410e:	1b 82       	std	Y+3, r1	; 0x03
    4110:	1a 82       	std	Y+2, r1	; 0x02
    4112:	a0 91 80 01 	lds	r26, 0x0180
    4116:	b0 91 81 01 	lds	r27, 0x0181
    411a:	10 97       	sbiw	r26, 0x00	; 0
    411c:	09 f1       	breq	.+66     	; 0x4160 <free+0x60>
    411e:	40 e0       	ldi	r20, 0x00	; 0
    4120:	50 e0       	ldi	r21, 0x00	; 0
    4122:	ac 17       	cp	r26, r28
    4124:	bd 07       	cpc	r27, r29
    4126:	08 f1       	brcs	.+66     	; 0x416a <free+0x6a>
    4128:	bb 83       	std	Y+3, r27	; 0x03
    412a:	aa 83       	std	Y+2, r26	; 0x02
    412c:	fe 01       	movw	r30, r28
    412e:	21 91       	ld	r18, Z+
    4130:	31 91       	ld	r19, Z+
    4132:	e2 0f       	add	r30, r18
    4134:	f3 1f       	adc	r31, r19
    4136:	ae 17       	cp	r26, r30
    4138:	bf 07       	cpc	r27, r31
    413a:	79 f4       	brne	.+30     	; 0x415a <free+0x5a>
    413c:	8d 91       	ld	r24, X+
    413e:	9c 91       	ld	r25, X
    4140:	11 97       	sbiw	r26, 0x01	; 1
    4142:	28 0f       	add	r18, r24
    4144:	39 1f       	adc	r19, r25
    4146:	2e 5f       	subi	r18, 0xFE	; 254
    4148:	3f 4f       	sbci	r19, 0xFF	; 255
    414a:	39 83       	std	Y+1, r19	; 0x01
    414c:	28 83       	st	Y, r18
    414e:	12 96       	adiw	r26, 0x02	; 2
    4150:	8d 91       	ld	r24, X+
    4152:	9c 91       	ld	r25, X
    4154:	13 97       	sbiw	r26, 0x03	; 3
    4156:	9b 83       	std	Y+3, r25	; 0x03
    4158:	8a 83       	std	Y+2, r24	; 0x02
    415a:	41 15       	cp	r20, r1
    415c:	51 05       	cpc	r21, r1
    415e:	71 f4       	brne	.+28     	; 0x417c <free+0x7c>
    4160:	d0 93 81 01 	sts	0x0181, r29
    4164:	c0 93 80 01 	sts	0x0180, r28
    4168:	20 c0       	rjmp	.+64     	; 0x41aa <free+0xaa>
    416a:	12 96       	adiw	r26, 0x02	; 2
    416c:	8d 91       	ld	r24, X+
    416e:	9c 91       	ld	r25, X
    4170:	13 97       	sbiw	r26, 0x03	; 3
    4172:	ad 01       	movw	r20, r26
    4174:	00 97       	sbiw	r24, 0x00	; 0
    4176:	11 f0       	breq	.+4      	; 0x417c <free+0x7c>
    4178:	dc 01       	movw	r26, r24
    417a:	d3 cf       	rjmp	.-90     	; 0x4122 <free+0x22>
    417c:	fa 01       	movw	r30, r20
    417e:	d3 83       	std	Z+3, r29	; 0x03
    4180:	c2 83       	std	Z+2, r28	; 0x02
    4182:	21 91       	ld	r18, Z+
    4184:	31 91       	ld	r19, Z+
    4186:	e2 0f       	add	r30, r18
    4188:	f3 1f       	adc	r31, r19
    418a:	ce 17       	cp	r28, r30
    418c:	df 07       	cpc	r29, r31
    418e:	69 f4       	brne	.+26     	; 0x41aa <free+0xaa>
    4190:	88 81       	ld	r24, Y
    4192:	99 81       	ldd	r25, Y+1	; 0x01
    4194:	28 0f       	add	r18, r24
    4196:	39 1f       	adc	r19, r25
    4198:	2e 5f       	subi	r18, 0xFE	; 254
    419a:	3f 4f       	sbci	r19, 0xFF	; 255
    419c:	fa 01       	movw	r30, r20
    419e:	31 83       	std	Z+1, r19	; 0x01
    41a0:	20 83       	st	Z, r18
    41a2:	8a 81       	ldd	r24, Y+2	; 0x02
    41a4:	9b 81       	ldd	r25, Y+3	; 0x03
    41a6:	93 83       	std	Z+3, r25	; 0x03
    41a8:	82 83       	std	Z+2, r24	; 0x02
    41aa:	df 91       	pop	r29
    41ac:	cf 91       	pop	r28
    41ae:	08 95       	ret

000041b0 <_exit>:
    41b0:	f8 94       	cli

000041b2 <__stop_program>:
    41b2:	ff cf       	rjmp	.-2      	; 0x41b2 <__stop_program>
